(dp0
S''
p1
(dp2
S'\n'
p3
I1
ssS'limited'
p4
(dp5
S'amount'
p6
I1
ssS'sleep'
p7
(dp8
S'\n'
p9
I1
ssS'chunky,'
p10
(dp11
S'but'
p12
I1
ssS'hate'
p13
(dp14
S'\n'
p15
I1
ssS'up,'
p16
(dp17
S'blow'
p18
I0
sS'and'
p19
I0
sS'over,'
p20
I0
sS'pat'
p21
I0
sS"thinkin'"
p22
I0
sS'they'
p23
I0
sS'shake'
p24
I0
ssS'common,'
p25
(dp26
S'poodle'
p27
I1
ssS'sorry'
p28
(dp29
S"i'm"
p30
I1
ssS'every'
p31
(dp32
S'day'
p33
I1
ssS'screaming'
p34
(dp35
S'on'
p36
I1
ssS'sama'
p37
(dp38
S'lamaa'
p39
I1
ssS'stars?'
p40
(dp41
S'\n'
p42
I0
sS'shooting'
p43
I0
ssS'school'
p44
(dp45
S'flunkie,'
p46
I0
sS'full'
p47
I0
sS'with'
p48
I0
ssS'skills'
p49
(dp50
S'brung'
p51
I1
ssS'pinch'
p52
(dp53
S'yourself'
p54
I1
ssS'uhh..'
p55
(dp56
S'\n'
p57
I1
ssS'seven,'
p58
(dp59
S'seven-eleven,'
p60
I1
ssS'me,'
p61
(dp62
S'her'
p63
I0
sS'my'
p64
I0
sS'she'
p65
I0
sS'aw'
p66
I0
sS'he'
p67
I0
ssS'monch'
p68
(dp69
S'grind'
p70
I1
ssS'likely'
p71
(dp72
S"i'ma"
p73
I1
ssS'me?'
p74
(dp75
S"i'm"
p76
I1
ssS'even'
p77
(dp78
S'a'
p79
I0
sS'look'
p80
I0
sS'get'
p81
I0
sS'though'
p82
I0
sS'harder'
p83
I0
sS'back'
p84
I0
sS'see'
p85
I0
sS'wear'
p86
I0
sS'have'
p87
I0
sS'you'
p88
I0
sS'saw'
p89
I0
ssS'revolver'
p90
(dp91
S'and'
p92
I1
ssS'liberty'
p93
(dp94
S'\n'
p95
I1
ssS'lights'
p96
(dp97
S'of'
p98
I1
ssS'above'
p99
(dp100
S'you,'
p101
I1
ssS'new'
p102
(dp103
S'school'
p104
I0
sS'raygun'
p105
I0
sS'chick'
p106
I0
sS'world'
p107
I0
sS'man,'
p108
I0
sS'bullshit'
p109
I0
sS'whip'
p110
I0
ssS'ever'
p111
(dp112
S'mattered'
p113
I0
sS'since'
p114
I0
sS'wanted,'
p115
I0
ssS'told'
p116
(dp117
S'it'
p118
I0
sS'her'
p119
I0
ssS'crunch'
p120
(dp121
S'rhymes,'
p122
I1
ssS'never'
p123
(dp124
S'call'
p125
I0
sS'stating,'
p126
I0
sS'had'
p127
I0
sS'gonna'
p128
I0
sS'sentimental,'
p129
I0
sS'let'
p130
I0
sS'demonstrating'
p131
I0
sS'rock'
p132
I0
sS'ask'
p133
I0
sS'seen'
p134
I0
sS'fading,'
p135
I0
ssS'swag'
p136
(dp137
S'like'
p138
I1
ssS'here'
p139
(dp140
S'i'
p141
I0
sS'listening,'
p142
I0
sS'\n'
p143
I0
sS'they'
p144
I0
sS'goes'
p145
I0
ssS'hers'
p146
(dp147
S'\n'
p148
I1
ssS'aftermath'
p149
(dp150
S'after'
p151
I1
ssS'kids'
p152
(dp153
S'from'
p154
I1
ssS'daughter'
p155
(dp156
S'\n'
p157
I1
ssS'changed'
p158
(dp159
S'\n'
p160
I1
ssS"i'd"
p161
(dp162
S'rather'
p163
I1
ssS'smoke'
p164
(dp165
S'some'
p166
I1
ssS"i'm"
p167
(dp168
S'all'
p169
I0
sS'just'
p170
I0
sS'drunk'
p171
I0
sS"guessin'"
p172
I0
sS'coastin'
p173
I0
sS"totin'"
p174
I0
sS'an'
p175
I0
sS'down'
p176
I0
sS'yellin'
p177
I0
sS'asleep'
p178
I0
sS'at'
p179
I0
sS'in'
p180
I0
sS"rollin'"
p181
I0
sS'masterfully'
p182
I0
sS'ripping'
p183
I0
sS'out'
p184
I0
sS'omnipotent'
p185
I0
sS'with'
p186
I0
sS'thinkin'
p187
I0
sS'late'
p188
I0
sS'only'
p189
I0
sS'too'
p190
I0
sS'superhuman'
p191
I0
sS'racing'
p192
I0
sS'tryna'
p193
I0
sS'askin'
p194
I0
sS"hopin'"
p195
I0
sS'inadvertently'
p196
I0
sS'never'
p197
I0
sS'gonna'
p198
I0
sS"wakin'"
p199
I0
sS'not'
p200
I0
sS'trouble'
p201
I0
sS'beginning'
p202
I0
sS'a'
p203
I0
sS'on'
p204
I0
sS'made'
p205
I0
sS'practicing'
p206
I0
sS'like'
p207
I0
sS'straight'
p208
I0
sS'reloading'
p209
I0
sS'chromeless,'
p210
I0
sS'the'
p211
I0
ssS'listening,'
p212
(dp213
S'my'
p214
I1
ssS'dre'
p215
(dp216
S'looking'
p217
I1
ssS'feelings'
p218
(dp219
S'to'
p220
I0
sS'\n'
p221
I0
ssS'plot'
p222
(dp223
S'or'
p224
I1
ssS'would'
p225
(dp226
S'you'
p227
I1
ssS'sweater'
p228
(dp229
S'already,'
p230
I1
ssS'arms'
p231
(dp232
S'are'
p233
I1
ssS'movie,'
p234
(dp235
S"there's"
p236
I1
ssS'call'
p237
(dp238
S'me'
p239
I0
sS'from'
p240
I0
sS'rage'
p241
I0
sS'ice'
p242
I0
sS'you'
p243
I0
sS'my'
p244
I0
sS'the'
p245
I0
ssS'calm'
p246
(dp247
S'and'
p248
I1
ssS'everyway'
p249
(dp250
S'like'
p251
I1
ssS'right,'
p252
(dp253
S'buy'
p254
I1
ssS'tryin'
p255
(dp256
S'to'
p257
I1
ssS'type'
p258
(dp259
S'of'
p260
I1
ssS'tell'
p261
(dp262
S'me'
p263
I1
ssS'mekhi'
p264
(dp265
S'phifer,'
p266
I1
ssS'warp'
p267
(dp268
S'from'
p269
I1
ssS'"i'
p270
(dp271
S"don't"
p272
I1
ssS'phone'
p273
(dp274
S'with'
p275
I0
sS'in'
p276
I0
ssS'hole'
p277
(dp278
S'that'
p279
I1
ssS'hold'
p280
(dp281
S'your'
p282
I1
ssS'scribble'
p283
(dp284
S'and'
p285
I1
ssS'off,'
p286
(dp287
S"they'd"
p288
I1
ssS'must'
p289
(dp290
S'be'
p291
I1
ssS'shoot'
p292
(dp293
S'ya'
p294
I0
sS'for'
p295
I0
ssS'ow...'
p296
(dp297
S'uh'
p298
I1
ssS'erp'
p299
(dp300
S'\n'
p301
I0
sS'erp'
p302
I0
ssS'room'
p303
(dp304
S"'cause"
p305
I1
ssS'mc'
p306
(dp307
S'still'
p308
I1
ssS'work'
p309
(dp310
S'for'
p311
I1
ssS'roof'
p312
(dp313
S'off'
p314
I1
ssS'root'
p315
(dp316
S'for'
p317
I1
ssS'could'
p318
(dp319
S'i'
p320
I0
sS'use'
p321
I0
sS'really'
p322
I0
ssS'pimp"'
p323
(dp324
S'yeah'
p325
I1
ssS'give'
p326
(dp327
S'a'
p328
I0
sS'up'
p329
I0
ssS'pimp,'
p330
(dp331
S'pimp'
p332
I1
ssS'involve'
p333
(dp334
S'my'
p335
I1
ssS'homie'
p336
(dp337
S'grows'
p338
I1
ssS'want'
p339
(dp340
S'me'
p341
I0
sS'a'
p342
I0
sS'the'
p343
I0
sS'from'
p344
I0
sS'him'
p345
I0
ssS'mouth,'
p346
(dp347
S'but'
p348
I1
ssS'keep'
p349
(dp350
S'a'
p351
I0
sS'up'
p352
I0
sS'it'
p353
I0
ssS'hog'
p354
(dp355
S'damn'
p356
I1
ssS'end'
p357
(dp358
S'of'
p359
I0
sS'the'
p360
I0
sS'up'
p361
I0
ssS'trill'
p362
(dp363
S'in'
p364
I1
ssS'provide'
p365
(dp366
S'the'
p367
I1
ssS'how'
p368
(dp369
S'to'
p370
I0
sS'could'
p371
I0
sS'you'
p372
I0
sS'the'
p373
I0
sS'many'
p374
I0
ssS'hot'
p375
(dp376
S'\n'
p377
I1
ssS'hop'
p378
(dp379
S'\n'
p380
I1
ssS'answer'
p381
(dp382
S'that'
p383
I1
ssS'gate'
p384
(dp385
S'\n'
p386
I1
ssS'truthful'
p387
(dp388
S'the'
p389
I1
ssS'cornrows'
p390
(dp391
S'\n'
p392
I1
ssS'after'
p393
(dp394
S'the'
p395
I0
sS'you'
p396
I0
sS'all'
p397
I0
ssS'loyalty'
p398
(dp399
S'\n'
p400
I1
ssS'lab'
p401
(dp402
S'again,'
p403
I1
ssS'wrong'
p404
(dp405
S'like'
p406
I1
ssS'lap'
p407
(dp408
S'\n'
p409
I1
ssS'attempt'
p410
(dp411
S'these'
p412
I1
ssS'keeps'
p413
(dp414
S'on'
p415
I1
ssS'unfolds'
p416
(dp417
S'\n'
p418
I1
ssS'office'
p419
(dp420
S'\n'
p421
I1
ssS'over'
p422
(dp423
S'the'
p424
I1
ssS'down,'
p425
(dp426
S'the'
p427
I1
ssS'innovative'
p428
(dp429
S'and'
p430
I1
ssS'before'
p431
(dp432
S'this'
p433
I0
sS'i'
p434
I0
sS'the'
p435
I0
sS'it'
p436
I0
sS'general'
p437
I0
ssS'somewhere'
p438
(dp439
S'in'
p440
I1
ssS'backpack'
p441
(dp442
S'rap,'
p443
I1
ssS'writing'
p444
(dp445
S'the'
p446
I1
ssS'better'
p447
(dp448
S'go'
p449
I0
sS'never'
p450
I0
sS'\n'
p451
I0
sS'lose'
p452
I0
ssS'then?'
p453
(dp454
S'\n'
p455
I1
ssS'fade'
p456
(dp457
S'to'
p458
I1
ssS'then'
p459
(dp460
S"i'll"
p461
I0
sS'again'
p462
I0
sS'we'
p463
I0
sS'i'
p464
I0
sS'maybe'
p465
I0
sS'\n'
p466
I0
sS'your'
p467
I0
sS'chirped'
p468
I0
sS'another'
p469
I0
sS"i'm"
p470
I0
sS'you'
p471
I0
sS'he'
p472
I0
ssS'them'
p473
(dp474
S'a'
p475
I0
sS'niggas'
p476
I0
sS'into'
p477
I0
sS'people'
p478
I0
sS'other'
p479
I0
sS'figures'
p480
I0
sS'fools'
p481
I0
ssS'woken'
p482
(dp483
S'\n'
p484
I1
ssS'break'
p485
(dp486
S'a'
p487
I0
sS'you'
p488
I0
sS"'em"
p489
I0
ssS'they'
p490
(dp491
S'do'
p492
I0
sS'said'
p493
I0
sS'dont'
p494
I0
sS'played'
p495
I0
sS'rolled'
p496
I0
sS'confuse'
p497
I0
sS'\n'
p498
I0
sS'moved'
p499
I0
sS'was'
p500
I0
sS'say'
p501
I0
sS'asking'
p502
I0
sS'can'
p503
I0
sS'want'
p504
I0
sS'in'
p505
I0
sS'got'
p506
I0
sS'get'
p507
I0
sS'come'
p508
I0
ssS'one'
p509
(dp510
S'chance?'
p511
I0
sS'shot,'
p512
I0
sS'\n'
p513
I0
sS'chance'
p514
I0
sS'text,'
p515
I0
sS'spot,'
p516
I0
sS'moment'
p517
I0
sS'of'
p518
I0
sS'where'
p519
I0
sS'line'
p520
I0
sS'opportunity'
p521
I0
sS'day'
p522
I0
ssS'rental'
p523
(dp524
S'\n'
p525
I1
ssS'bank'
p526
(dp527
S'\n'
p528
I1
ssS'l'
p529
(dp530
S'lit'
p531
I1
ssS'went'
p532
(dp533
S'to'
p534
I0
sS'straight'
p535
I0
ssS'mean'
p536
(dp537
S'for'
p538
I1
ssS'shows,'
p539
(dp540
S"he's"
p541
I1
ssS'rakim,'
p542
(dp543
S'lakim'
p544
I1
ssS'celebrating'
p545
(dp546
S'\n'
p547
I1
ssS'flock'
p548
(dp549
S'of'
p550
I1
ssS'whip'
p551
(dp552
S'that'
p553
I1
ssS'speed,'
p554
(dp555
S'jj'
p556
I1
ssS'god'
p557
(dp558
S'only'
p559
I0
sS'\n'
p560
I0
sS'for'
p561
I0
ssS'hooked'
p562
(dp563
S'it'
p564
I1
ssS'content'
p565
(dp566
S'\n'
p567
I1
ssS"'em"
p568
(dp569
S'all'
p570
I0
sS'off'
p571
I0
sS'in'
p572
I0
sS'\n'
p573
I0
sS'up,'
p574
I0
sS'lose'
p575
I0
sS'motivated'
p576
I0
ssS'got'
p577
(dp578
S'a'
p579
I0
sS'me'
p580
I0
sS'\n'
p581
I0
sS'weight'
p582
I0
sS'kick,'
p583
I0
sS'my'
p584
I0
sS'niggas'
p585
I0
sS'two'
p586
I0
sS'paid'
p587
I0
sS'your'
p588
I0
sS'to'
p589
I0
sS'no'
p590
I0
sS'the'
p591
I0
sS'slim'
p592
I0
sS'thst'
p593
I0
sS'killed'
p594
I0
ssS"doesn't"
p595
(dp596
S'do'
p597
I1
ssS'free'
p598
(dp599
S'my'
p600
I1
ssS'yesterday'
p601
(dp602
S'them'
p603
I1
ssS"celebratin'"
p604
(dp605
S'shit,'
p606
I1
ssS'masterpiece'
p607
(dp608
S'as'
p609
I1
ssS"drama's"
p610
(dp611
S'screaming'
p612
I1
ssS'acrobat'
p613
(dp614
S'stunts'
p615
I1
ssS'days'
p616
(dp617
S'\n'
p618
I1
ssS'switch,'
p619
(dp620
S'i'
p621
I1
ssS'clothes'
p622
(dp623
S'on'
p624
I1
ssS'loud'
p625
(dp626
S'\n'
p627
I1
ssS'fuckin'
p628
(dp629
S'with'
p630
I1
ssS'grade'
p631
(dp632
S'\n'
p633
I1
ssS'another'
p634
(dp635
S"twenty-fo'"
p636
I0
sS'sip'
p637
I0
sS'day'
p638
I0
sS'hand'
p639
I0
sS'one'
p640
I0
ssS'masterfully'
p641
(dp642
S'constructing'
p643
I1
ssS'top'
p644
(dp645
S'she'
p646
I0
sS'\n'
p647
I0
sS'gun'
p648
I0
sS'floor'
p649
I0
ssS'twisted'
p650
(dp651
S'\n'
p652
I1
ssS'elevator'
p653
(dp654
S'\n'
p655
I0
sS'music'
p656
I0
ssS'pooh,'
p657
(dp658
S'stop'
p659
I1
ssS'too'
p660
(dp661
S'real'
p662
I0
sS'fly,'
p663
I0
sS'mainstream'
p664
I0
sS'uh!'
p665
I0
sS'big'
p666
I0
sS'much'
p667
I0
ssS'bitter'
p668
(dp669
S'hatred'
p670
I1
ssS'dogs'
p671
(dp672
S'caged'
p673
I1
ssS'easy,'
p674
(dp675
S'he'
p676
I1
ssS'murder'
p677
(dp678
S'mitten,'
p679
I0
sS'\n'
p680
I0
sS'missions'
p681
I0
sS'to,'
p682
I0
ssS'took'
p683
(dp684
S'another'
p685
I1
ssS'was,'
p686
(dp687
S'but'
p688
I1
ssS'dog,'
p689
(dp690
S'no'
p691
I1
ssS'killaholic'
p692
(dp693
S'kill'
p694
I1
ssS'morphed'
p695
(dp696
S'into'
p697
I1
ssS'matter'
p698
(dp699
S"he's"
p700
I1
ssS'silly'
p701
(dp702
S'me'
p703
I1
ssS'to,'
p704
(dp705
S'\n'
p706
I0
sS'man'
p707
I0
ssS'feeling'
p708
(dp709
S'on'
p710
I0
sS'like'
p711
I0
sS"i've"
p712
I0
ssS'fashion'
p713
(dp714
S'\n'
p715
I1
ssS'ran'
p716
(dp717
S'the'
p718
I1
ssS'kim,'
p719
(dp720
S'and'
p721
I1
ssS'mind'
p722
(dp723
S'to'
p724
I0
sS'\n'
p725
I0
sS'to,'
p726
I0
ssS'mine'
p727
(dp728
S'\n'
p729
I0
sS'for'
p730
I0
ssS'elevating'
p731
(dp732
S'music,'
p733
I1
ssS'asgard,'
p734
(dp735
S'asgard'
p736
I1
ssS'rap'
p737
(dp738
S'like'
p739
I0
sS'profit'
p740
I0
sS'god'
p741
I0
sS'\n'
p742
I0
sS'game'
p743
I0
sS'immortality'
p744
I0
sS'god,'
p745
I0
sS'with'
p746
I0
sS'shit'
p747
I0
ssS'seen'
p748
(dp749
S'an'
p750
I1
ssS'ray'
p751
(dp752
S'j'
p753
I1
ssS"do'"
p754
(dp755
S"lil'"
p756
I0
sS'\n'
p757
I0
ssS'craps?'
p758
(dp759
S'\n'
p760
I1
ssS'though'
p761
(dp762
S'i'
p763
I0
sS'\n'
p764
I0
ssS'rappers'
p765
(dp766
S'are'
p767
I1
ssS'option,'
p768
(dp769
S"failure's"
p770
I1
ssS'mouth'
p771
(dp772
S'\n'
p773
I0
sS'had'
p774
I0
ssS'real,'
p775
(dp776
S'fuck'
p777
I1
ssS'rodent,'
p778
(dp779
S"i'm"
p780
I1
ssS'knows,'
p781
(dp782
S'he'
p783
I1
ssS'flow'
p784
(dp785
S'\n'
p786
I1
ssS'place'
p787
(dp788
S'looking'
p789
I0
sS'much'
p790
I0
ssS'came'
p791
(dp792
S'with'
p793
I1
ssS'saying'
p794
(dp795
S'ricocheting'
p796
I1
ssS'lyrics'
p797
(dp798
S'coming'
p799
I1
ssS'chromeless,'
p800
(dp801
S'you'
p802
I1
ssS'earth'
p803
(dp804
S'like'
p805
I1
ssS'chewed'
p806
(dp807
S'up'
p808
I1
ssS'shot,'
p809
(dp810
S'do'
p811
I0
sS'or'
p812
I0
ssS'bust'
p813
(dp814
S'a'
p815
I1
ssS'rich'
p816
(dp817
S'\n'
p818
I1
ssS'glitz'
p819
(dp820
S'and'
p821
I1
ssS'jammy,'
p822
(dp823
S'and'
p824
I1
ssS'plate'
p825
(dp826
S'\n'
p827
I1
ssS'rappidy'
p828
(dp829
S'rap'
p830
I1
ssS'about?'
p831
(dp832
S'\n'
p833
I1
ssS'pop,'
p834
(dp835
S'cause'
p836
I1
ssS'pocket'
p837
(dp838
S'\n'
p839
I1
ssS'sweaty,'
p840
(dp841
S'knees'
p842
I1
ssS'runs'
p843
(dp844
S'deep,'
p845
I1
ssS'bay'
p846
(dp847
S'to'
p848
I1
ssS'bad'
p849
(dp850
S'side,'
p851
I0
sS'\n'
p852
I0
sS'news?'
p853
I0
sS'bitch'
p854
I0
ssS'thumbs'
p855
(dp856
S'up,'
p857
I1
ssS'lemonade'
p858
(dp859
S'then'
p860
I1
ssS'slickety,'
p861
(dp862
S'gibbedy,'
p863
I1
ssS'fail'
p864
(dp865
S'me'
p866
I1
ssS'best'
p867
(dp868
S'content'
p869
I0
sS'believe'
p870
I0
ssS'said'
p871
(dp872
S'on'
p873
I0
sS'mhm...'
p874
I0
sS'that'
p875
I0
sS'i'
p876
I0
sS"he's"
p877
I0
sS'u.'
p878
I0
sS'the'
p879
I0
sS'he'
p880
I0
ssS'away'
p881
(dp882
S'with'
p883
I1
ssS'stamps'
p884
(dp885
S"don't"
p886
I1
ssS"there's"
p887
(dp888
S'vomit'
p889
I0
sS'something'
p890
I0
sS'no'
p891
I0
ssS'finger'
p892
(dp893
S'on'
p894
I1
ssS'we'
p895
(dp896
S'used'
p897
I0
sS"rappin'"
p898
I0
sS'played'
p899
I0
sS'move'
p900
I0
sS'eatin,'
p901
I0
sS'call'
p902
I0
sS'can'
p903
I0
sS'have'
p904
I0
sS'in'
p905
I0
sS'pretend'
p906
I0
ssS'noodle,'
p907
(dp908
S'we'
p909
I1
ssS'rolled'
p910
(dp911
S'right'
p912
I1
ssS'lamaa'
p913
(dp914
S'you'
p915
I0
sS'duma'
p916
I0
ssS'wear'
p917
(dp918
S'her'
p919
I1
ssS'fetti'
p920
(dp921
S'i'
p922
I1
ssS'nut-sack'
p923
(dp924
S'\n'
p925
I1
ssS'chirped'
p926
(dp927
S'out'
p928
I1
ssS'himalayas'
p929
(dp930
S'\n'
p931
I1
ssS'fags'
p932
(dp933
S'think'
p934
I1
ssS'levitating'
p935
(dp936
S'\n'
p937
I1
ssS'blows.'
p938
(dp939
S"it's"
p940
I1
ssS'lookin'
p941
(dp942
S'in'
p943
I1
ssS'lot,'
p944
(dp945
S'so'
p946
I1
ssS'mathers'
p947
(dp948
S'lp'
p949
I1
ssS'tough'
p950
(dp951
S'times'
p952
I1
ssS'boys,'
p953
(dp954
S'still'
p955
I1
ssS'speak'
p956
(dp957
S'in'
p958
I1
ssS'three'
p959
(dp960
S'stories,'
p961
I1
ssS'been'
p962
(dp963
S'tryin'
p964
I0
sS'chewed'
p965
I0
sS'grinding'
p966
I0
ssS'beep'
p967
(dp968
S'from'
p969
I1
ssS'trigger'
p970
(dp971
S'\n'
p972
I1
ssS'deep,'
p973
(dp974
S'so'
p975
I1
ssS'superhuman'
p976
(dp977
S'\n'
p978
I1
ssS'lovely'
p979
(dp980
S'lady'
p981
I1
ssS'life'
p982
(dp983
S'got'
p984
I0
sS'is'
p985
I0
sS'\n'
p986
I0
sS'for'
p987
I0
ssS'spit'
p988
(dp989
S'out'
p990
I1
ssS'"hey,'
p991
(dp992
S'fab,'
p993
I1
ssS'worked'
p994
(dp995
S'out'
p996
I1
ssS'haters'
p997
(dp998
S'are'
p999
I1
ssS'krypton,'
p1000
(dp1001
S'no'
p1002
I1
ssS'ceilings'
p1003
(dp1004
S'to'
p1005
I1
ssS'property'
p1006
(dp1007
S'\n'
p1008
I1
ssS'mistake'
p1009
(dp1010
S'it'
p1011
I0
sS'if'
p1012
I0
ssS'seven'
p1013
(dp1014
S'even'
p1015
I0
sS'kids'
p1016
I0
ssS'over,'
p1017
(dp1018
S'these'
p1019
I0
sS'blaoh!'
p1020
I0
sS'but'
p1021
I0
ssS'played'
p1022
(dp1023
S'piano'
p1024
I0
sS'bones,'
p1025
I0
ssS'is'
p1026
(dp1027
S'all'
p1028
I0
sS'for'
p1029
I0
sS'boring'
p1030
I0
sS'drop'
p1031
I0
sS'mine'
p1032
I0
sS'as'
p1033
I0
sS'alright'
p1034
I0
sS'gaping'
p1035
I0
sS'my'
p1036
I0
sS'the'
p1037
I0
sS'told'
p1038
I0
ssS'it'
p1039
(dp1040
S'unfolds'
p1041
I0
sS"don't"
p1042
I0
sS'wasnt'
p1043
I0
sS'\n'
p1044
I0
sS'juicy'
p1045
I0
sS'as'
p1046
I0
sS'through'
p1047
I0
sS'in'
p1048
I0
sS'go'
p1049
I0
sS'slip,'
p1050
I0
sS'up,'
p1051
I0
sS'for'
p1052
I0
sS'six'
p1053
I0
sS'seems'
p1054
I0
sS'hot'
p1055
I0
sS'to'
p1056
I0
sS'only'
p1057
I0
sS'shawty'
p1058
I0
sS'was'
p1059
I0
sS'occurs'
p1060
I0
sS'hit'
p1061
I0
sS'read,'
p1062
I0
sS"ain't"
p1063
I0
sS'now'
p1064
I0
sS'with'
p1065
I0
sS'by'
p1066
I0
sS'like'
p1067
I0
sS'g'
p1068
I0
sS'ever'
p1069
I0
sS'means,'
p1070
I0
sS'up'
p1071
I0
sS'quick'
p1072
I0
ssS'basketball?'
p1073
(dp1074
S'\n'
p1075
I1
ssS'shame'
p1076
(dp1077
S'\n'
p1078
I1
ssS'in'
p1079
(dp1080
S'tongues'
p1081
I0
sS"'cause"
p1082
I0
sS'office'
p1083
I0
sS'me,'
p1084
I0
sS'is'
p1085
I0
sS'one'
p1086
I0
sS'cheek,'
p1087
I0
sS'sight'
p1088
I0
sS'your'
p1089
I0
sS'common,'
p1090
I0
sS'prison'
p1091
I0
sS'case'
p1092
I0
sS'they'
p1093
I0
sS'half'
p1094
I0
sS'pimp,'
p1095
I0
sS'a'
p1096
I0
sS'this'
p1097
I0
sS"'salem's"
p1098
I0
sS'trouble,'
p1099
I0
sS'jail'
p1100
I0
sS'the'
p1101
I0
sS'my'
p1102
I0
sS'south'
p1103
I0
ssS'snitch,'
p1104
(dp1105
S'no'
p1106
I1
ssS'if'
p1107
(dp1108
S'a'
p1109
I0
sS"you're"
p1110
I0
sS'we'
p1111
I0
sS'that'
p1112
I0
sS'i'
p1113
I0
sS'it'
p1114
I0
sS'you'
p1115
I0
sS'he'
p1116
I0
ssS'grown'
p1117
(dp1118
S'farther'
p1119
I1
ssS'bottles'
p1120
(dp1121
S'in'
p1122
I1
ssS'things'
p1123
(dp1124
S'on'
p1125
I0
sS"i'd"
p1126
I0
sS'first,'
p1127
I0
ssS'make'
p1128
(dp1129
S'me'
p1130
I0
sS'a'
p1131
I0
sS'sure'
p1132
I0
sS'her'
p1133
I0
sS'that'
p1134
I0
sS'lemonade'
p1135
I0
sS'some'
p1136
I0
sS'it'
p1137
I0
sS'elevator'
p1138
I0
sS'elevating'
p1139
I0
sS'the'
p1140
I0
sS"'em"
p1141
I0
sS'songs'
p1142
I0
ssS"everybody's"
p1143
(dp1144
S'joking'
p1145
I1
ssS'fuck,'
p1146
(dp1147
S'i'
p1148
I1
ssS'smoke,'
p1149
(dp1150
S'smoke'
p1151
I1
ssS'shawty'
p1152
(dp1153
S'said'
p1154
I0
sS"don't"
p1155
I0
sS'drop'
p1156
I0
sS'see'
p1157
I0
sS'need'
p1158
I0
sS"i'm"
p1159
I0
sS'wanna'
p1160
I0
ssS'grows'
p1161
(dp1162
S'hotter'
p1163
I0
sS'harder,'
p1164
I0
ssS'inadvertently'
p1165
(dp1166
S"hurtin'"
p1167
I1
ssS'yousat'
p1168
(dp1169
S'\n'
p1170
I1
ssS"blueprint's"
p1171
(dp1172
S'simply'
p1173
I1
ssS'hand'
p1174
(dp1175
S'soon'
p1176
I1
ssS'fuse'
p1177
(dp1178
S'it'
p1179
I1
ssS'portal'
p1180
(dp1181
S'\n'
p1182
I1
ssS'opportunity'
p1183
(dp1184
S'\n'
p1185
I0
sS'comes'
p1186
I0
sS'that'
p1187
I0
ssS"pen'll"
p1188
(dp1189
S'go'
p1190
I1
ssS'kept'
p1191
(dp1192
S'rhyming'
p1193
I1
ssS'cool,'
p1194
(dp1195
S"it's"
p1196
I1
ssS'yola?'
p1197
(dp1198
S'who'
p1199
I0
sS"don't"
p1200
I0
ssS'the'
p1201
(dp1202
S'walking'
p1203
I0
sS'three-wheel'
p1204
I0
sS'radio'
p1205
I0
sS'skin'
p1206
I0
sS'earth'
p1207
I0
sS'cold'
p1208
I0
sS'moon'
p1209
I0
sS'fine'
p1210
I0
sS'police'
p1211
I0
sS'crew'
p1212
I0
sS'only'
p1213
I0
sS'homies'
p1214
I0
sS'goodyear'
p1215
I0
sS'jammy,'
p1216
I0
sS'mornin'
p1217
I0
sS'very'
p1218
I0
sS'big'
p1219
I0
sS'pied'
p1220
I0
sS'mgm'
p1221
I0
sS'fatburger'
p1222
I0
sS'words'
p1223
I0
sS'moment,'
p1224
I0
sS'front'
p1225
I0
sS'intersection'
p1226
I0
sS'exact'
p1227
I0
sS'day'
p1228
I0
sS'd'
p1229
I0
sS'cable'
p1230
I0
sS'skills'
p1231
I0
sS'12th'
p1232
I0
sS'l'
p1233
I0
sS'bay'
p1234
I0
sS'ozone'
p1235
I0
sS'sand'
p1236
I0
sS'night'
p1237
I0
sS'accolades'
p1238
I0
sS'trailer'
p1239
I0
sS'seven,'
p1240
I0
sS'right'
p1241
I0
sS'fucking'
p1242
I0
sS'back'
p1243
I0
sS'pandemonium'
p1244
I0
sS'hell'
p1245
I0
sS'arm'
p1246
I0
sS'best'
p1247
I0
sS'mood'
p1248
I0
sS'hater,'
p1249
I0
sS'bottom'
p1250
I0
sS'ac,'
p1251
I0
sS'lights'
p1252
I0
sS'ass'
p1253
I0
sS"partyin'"
p1254
I0
sS'story'
p1255
I0
sS'reason'
p1256
I0
sS'key'
p1257
I0
sS'bill,'
p1258
I0
sS'punanny'
p1259
I0
sS'himalayas'
p1260
I0
sS'globetrotter'
p1261
I0
sS'lakers'
p1262
I0
sS'blackness'
p1263
I0
sS'act'
p1264
I0
sS'supersonics'
p1265
I0
sS'whole'
p1266
I0
sS'block'
p1267
I0
sS'madness'
p1268
I0
sS'haps'
p1269
I0
sS'point'
p1270
I0
sS'wall'
p1271
I0
sS'marshall'
p1272
I0
sS'chronic'
p1273
I0
sS'nigga'
p1274
I0
sS'elevator'
p1275
I0
sS'boys,'
p1276
I0
sS'church'
p1277
I0
sS'glitz'
p1278
I0
sS'wack'
p1279
I0
sS'discrimination'
p1280
I0
sS'top'
p1281
I0
sS'long'
p1282
I0
sS'next'
p1283
I0
sS'cowards'
p1284
I0
sS'secret'
p1285
I0
sS'trigger'
p1286
I0
sS'music'
p1287
I0
sS'way'
p1288
I0
sS'white'
p1289
I0
sS'bitter'
p1290
I0
sS'gravy,'
p1291
I0
sS"motherfuckin'"
p1292
I0
sS'glock'
p1293
I0
sS'club'
p1294
I0
sS'track,'
p1295
I0
sS'phone'
p1296
I0
sS'glam'
p1297
I0
sS'haters'
p1298
I0
sS'wrapper'
p1299
I0
sS'women'
p1300
I0
sS'case'
p1301
I0
sS'dog,'
p1302
I0
sS'niggas'
p1303
I0
sS'bucket'
p1304
I0
sS'cash'
p1305
I0
sS'bed'
p1306
I0
sS'future'
p1307
I0
sS"clock's"
p1308
I0
sS'situation'
p1309
I0
sS'fashion'
p1310
I0
sS'rap'
p1311
I0
sS'fuck'
p1312
I0
sS'surface'
p1313
I0
sS'days'
p1314
I0
sS'middle'
p1315
I0
sS'murder'
p1316
I0
sS'high,'
p1317
I0
sS'showers'
p1318
I0
sS'politics'
p1319
I0
sS'beginning,'
p1320
I0
sS"buildin'"
p1321
I0
sS'court'
p1322
I0
sS'doctor'
p1323
I0
sS"do'"
p1324
I0
sS'same'
p1325
I0
sS'beat'
p1326
I0
sS'pad'
p1327
I0
sS'soap'
p1328
I0
sS'craps?'
p1329
I0
sS'potion'
p1330
I0
sS'pain'
p1331
I0
sS'switch,'
p1332
I0
sS"blueprint's"
p1333
I0
sS'lab'
p1334
I0
sS'portal'
p1335
I0
sS'statue'
p1336
I0
sS'yola?'
p1337
I0
sS'end'
p1338
I0
sS'alcohol'
p1339
I0
sS'taking,'
p1340
I0
sS'south'
p1341
I0
sS'brew'
p1342
I0
sS'underground,'
p1343
I0
sS'fact'
p1344
I0
ssS'left'
p1345
(dp1346
S'my'
p1347
I1
ssS'leagues'
p1348
(dp1349
S'above'
p1350
I1
ssS'just'
p1351
(dp1352
S'a'
p1353
I0
sS'what'
p1354
I0
sS'like'
p1355
I0
sS'that'
p1356
I0
sS"don't"
p1357
I0
sS'yesterday'
p1358
I0
sS'dodged'
p1359
I0
sS'how'
p1360
I0
sS'let'
p1361
I0
sS'in'
p1362
I0
sS'wakin'
p1363
I0
sS'come'
p1364
I0
sS'bought'
p1365
I0
ssS'vey,'
p1366
(dp1367
S'that'
p1368
I1
ssS'laptop'
p1369
(dp1370
S'in'
p1371
I1
ssS'verses'
p1372
(dp1373
S'i'
p1374
I0
sS'diverse'
p1375
I0
ssS'feet,'
p1376
(dp1377
S'fail'
p1378
I1
ssS'human'
p1379
(dp1380
S'\n'
p1381
I1
ssS'punchlines'
p1382
(dp1383
S'just'
p1384
I1
ssS'had'
p1385
(dp1386
S'a'
p1387
I0
sS'me'
p1388
I0
sS'\n'
p1389
I0
sS'it'
p1390
I0
sS'one'
p1391
I0
sS'to'
p1392
I0
sS'in'
p1393
I0
sS'the'
p1394
I0
sS'worked'
p1395
I0
ssS'easy'
p1396
(dp1397
S'on'
p1398
I1
ssS'prison'
p1399
(dp1400
S'\n'
p1401
I1
ssS'god?'
p1402
(dp1403
S'\n'
p1404
I1
ssS'god,'
p1405
(dp1406
S'rap'
p1407
I1
ssS'refund,'
p1408
(dp1409
S'need'
p1410
I1
ssS'dreams'
p1411
(dp1412
S'\n'
p1413
I1
ssS'virgins'
p1414
(dp1415
S'too'
p1416
I1
ssS'bobby'
p1417
(dp1418
S'ray?'
p1419
I1
ssS'night'
p1420
(dp1421
S'\n'
p1422
I0
sS'sky'
p1423
I0
ssS'right'
p1424
(dp1425
S'and'
p1426
I0
sS'when'
p1427
I0
sS'back'
p1428
I0
sS'past'
p1429
I0
sS'now'
p1430
I0
sS'type'
p1431
I0
sS'if'
p1432
I0
ssS'old'
p1433
(dp1434
S'in'
p1435
I1
ssS'crowd'
p1436
(dp1437
S'goes'
p1438
I1
ssS'people'
p1439
(dp1440
S'through'
p1441
I0
sS'never'
p1442
I0
sS'from'
p1443
I0
ssS'harder,'
p1444
(dp1445
S'homie'
p1446
I1
ssS'for'
p1447
(dp1448
S'me'
p1449
I0
sS'a'
p1450
I0
sS'you,'
p1451
I0
sS'your'
p1452
I0
sS'real,'
p1453
I0
sS'shit,'
p1454
I0
sS'\n'
p1455
I0
sS'some'
p1456
I0
sS'later'
p1457
I0
sS'everything'
p1458
I0
sS'good'
p1459
I0
sS'satan'
p1460
I0
sS'words'
p1461
I0
sS'the'
p1462
I0
sS'my'
p1463
I0
sS'you'
p1464
I0
sS'if'
p1465
I0
ssS'bottom'
p1466
(dp1467
S'she'
p1468
I1
ssS'ice'
p1469
(dp1470
S'cube'
p1471
I1
ssS'everything'
p1472
(dp1473
S'that'
p1474
I0
sS'i'
p1475
I0
sS'is'
p1476
I0
sS'had'
p1477
I0
sS'got'
p1478
I0
sS'you'
p1479
I0
ssS'asking'
p1480
(dp1481
S'me'
p1482
I1
ssS'yackidy-yac'
p1483
(dp1484
S'\n'
p1485
I1
ssS'hurt'
p1486
(dp1487
S'your'
p1488
I1
ssS'post'
p1489
(dp1490
S'mortem'
p1491
I0
sS'it'
p1492
I0
ssS'punanny'
p1493
(dp1494
S'\n'
p1495
I1
ssS"something's"
p1496
(dp1497
S'about'
p1498
I0
sS'wrong,'
p1499
I0
ssS'globetrotter'
p1500
(dp1501
S'lonely'
p1502
I1
ssS'plus'
p1503
(dp1504
S'nobody'
p1505
I0
sS'teeter-totter'
p1506
I0
ssS'rhyming'
p1507
(dp1508
S'and'
p1509
I1
ssS'marshall'
p1510
(dp1511
S'mathers'
p1512
I1
ssS'poodle'
p1513
(dp1514
S'\n'
p1515
I1
ssS'stop'
p1516
(dp1517
S'this'
p1518
I0
sS'\n'
p1519
I0
ssS'why?'
p1520
(dp1521
S'\n'
p1522
I1
ssS'fight'
p1523
(dp1524
S'with'
p1525
I1
ssS'stuck'
p1526
(dp1527
S'to'
p1528
I0
sS'in'
p1529
I0
ssS"boy's"
p1530
(dp1531
S'gay,'
p1532
I1
ssS'way'
p1533
(dp1534
S'to'
p1535
I0
sS"i'm"
p1536
I0
sS'so'
p1537
I0
sS'home'
p1538
I0
ssS'music'
p1539
(dp1540
S'\n'
p1541
I1
ssS'was'
p1542
(dp1543
S'a'
p1544
I0
sS'king'
p1545
I0
sS"tryin'"
p1546
I0
sS'like'
p1547
I0
sS'8,'
p1548
I0
sS'signed'
p1549
I0
sS'gonna'
p1550
I0
sS'ironic'
p1551
I0
sS'still'
p1552
I0
sS"rappin'"
p1553
I0
sS'playing'
p1554
I0
sS'glad'
p1555
I0
sS'watchin'
p1556
I0
ssS'head'
p1557
(dp1558
S'\n'
p1559
I0
sS"there's"
p1560
I0
ssS'doberman,'
p1561
(dp1562
S'pinch'
p1563
I1
ssS'hear'
p1564
(dp1565
S'some'
p1566
I1
ssS'oh-oh'
p1567
(dp1568
S'oh'
p1569
I1
ssS'inside'
p1570
(dp1571
S'amplified'
p1572
I1
ssS'mtv'
p1573
(dp1574
S'raps'
p1575
I1
ssS'stories,'
p1576
(dp1577
S'that'
p1578
I1
ssS'wait,'
p1579
(dp1580
S'wait'
p1581
I1
ssS'jealous,'
p1582
(dp1583
S'they'
p1584
I1
ssS'hotter'
p1585
(dp1586
S'\n'
p1587
I1
ssS'nod,'
p1588
(dp1589
S'back'
p1590
I1
ssS"mc's"
p1591
(dp1592
S'get'
p1593
I1
ssS"rollin'"
p1594
(dp1595
S'weed'
p1596
I1
ssS'floating'
p1597
(dp1598
S'\n'
p1599
I1
ssS'trip'
p1600
(dp1601
S'a'
p1602
I1
ssS'shit'
p1603
(dp1604
S'then'
p1605
I0
sS'like:'
p1606
I0
sS'\n'
p1607
I0
sS"ain't"
p1608
I0
sS'can'
p1609
I0
sS'crack,'
p1610
I0
ssS'floor'
p1611
(dp1612
S'\n'
p1613
I1
ssS'when'
p1614
(dp1615
S'your'
p1616
I0
sS'i'
p1617
I0
sS"it's"
p1618
I0
sS'fabolous'
p1619
I0
sS'it'
p1620
I0
sS"ain't"
p1621
I0
sS'she'
p1622
I0
sS'they'
p1623
I0
sS'you'
p1624
I0
sS"i'm"
p1625
I0
sS'he'
p1626
I0
ssS'stagnant'
p1627
(dp1628
S'he'
p1629
I1
ssS'roll'
p1630
(dp1631
S'hall'
p1632
I0
sS"'em"
p1633
I0
ssS'disastrously'
p1634
(dp1635
S'bad'
p1636
I1
ssS'palms'
p1637
(dp1638
S'are'
p1639
I1
ssS'felt'
p1640
(dp1641
S'on'
p1642
I1
ssS'fell'
p1643
(dp1644
S'off,'
p1645
I1
ssS'a.k.'
p1646
(dp1647
S'\n'
p1648
I1
ssS'underground,'
p1649
(dp1650
S'but'
p1651
I1
ssS'lemons,'
p1652
(dp1653
S'make'
p1654
I1
ssS'bullet'
p1655
(dp1656
S'from'
p1657
I1
ssS'moved'
p1658
(dp1659
S'on'
p1660
I1
ssS"n'"
p1661
(dp1662
S'\n'
p1663
I1
ssS'jacker'
p1664
(dp1665
S'in'
p1666
I1
ssS'time'
p1667
(dp1668
S'i'
p1669
I0
sS'period,'
p1670
I0
sS'\n'
p1671
I0
sS'where'
p1672
I0
sS'warp'
p1673
I0
ssS'songs'
p1674
(dp1675
S'you'
p1676
I0
sS'like'
p1677
I0
ssS'skin'
p1678
(dp1679
S'color'
p1680
I1
ssS'hump'
p1681
(dp1682
S'\n'
p1683
I1
ssS'father'
p1684
(dp1685
S'and'
p1686
I0
sS'\n'
p1687
I0
ssS'sacramento,'
p1688
(dp1689
S'late'
p1690
I1
ssS'finally'
p1691
(dp1692
S'got'
p1693
I1
ssS'bombs,'
p1694
(dp1695
S'but'
p1696
I1
ssS'2pac'
p1697
(dp1698
S'n.w.a,'
p1699
I1
ssS'goodyear'
p1700
(dp1701
S'blimp'
p1702
I1
ssS'me'
p1703
(dp1704
S'and'
p1705
I0
sS'show'
p1706
I0
sS'\n'
p1707
I0
sS'back'
p1708
I0
sS'rapbot'
p1709
I0
sS'what'
p1710
I0
sS'when'
p1711
I0
sS'to'
p1712
I0
sS'nascar,'
p1713
I0
sS'call'
p1714
I0
sS'rich'
p1715
I0
sS'do'
p1716
I0
sS'sick'
p1717
I0
sS'on,'
p1718
I0
sS'on'
p1719
I0
sS'here'
p1720
I0
sS'break'
p1721
I0
sS'know'
p1722
I0
sS'loss'
p1723
I0
sS'a'
p1724
I0
sS'king'
p1725
I0
sS'like'
p1726
I0
sS'this'
p1727
I0
sS"meditatin'"
p1728
I0
sS'up'
p1729
I0
sS'so'
p1730
I0
sS'not,'
p1731
I0
ssS'jerk'
p1732
(dp1733
S'\n'
p1734
I1
ssS'trouble'
p1735
(dp1736
S'\n'
p1737
I1
ssS'blast'
p1738
(dp1739
S'me'
p1740
I1
ssS'exact'
p1741
(dp1742
S'same'
p1743
I1
ssS'minute'
p1744
(dp1745
S'pooh,'
p1746
I1
ssS'cool'
p1747
(dp1748
S'\n'
p1749
I1
ssS"soul's"
p1750
(dp1751
S'escaping,'
p1752
I1
ssS'tear'
p1753
(dp1754
S'this'
p1755
I1
ssS'die'
p1756
(dp1757
S'with'
p1758
I1
ssS'dig'
p1759
(dp1760
S'out'
p1761
I1
ssS'gun'
p1762
(dp1763
S'\n'
p1764
I1
ssS'leave'
p1765
(dp1766
S'with'
p1767
I0
sS'my'
p1768
I0
ssS'settle'
p1769
(dp1770
S'in'
p1771
I1
ssS'subway'
p1772
(dp1773
S'\n'
p1774
I1
ssS'quick'
p1775
(dp1776
S'\n'
p1777
I1
ssS"it'll"
p1778
(dp1779
S'glue'
p1780
I1
ssS'be'
p1781
(dp1782
S'a'
p1783
I0
sS'odin,'
p1784
I0
sS'right'
p1785
I0
sS'woken'
p1786
I0
sS'inducted'
p1787
I0
sS'capable'
p1788
I0
sS"fuckin'"
p1789
I0
sS'able'
p1790
I0
sS'thor'
p1791
I0
sS'celebrating'
p1792
I0
sS'in'
p1793
I0
sS"makin'"
p1794
I0
sS'the'
p1795
I0
sS'truthful'
p1796
I0
sS'overseas'
p1797
I0
ssS"partyin'"
p1798
(dp1799
S'and'
p1800
I1
ssS'bake'
p1801
(dp1802
S'them'
p1803
I1
ssS'rough'
p1804
(dp1805
S'time'
p1806
I1
ssS'goes'
p1807
(dp1808
S'on'
p1809
I0
sS'gravity'
p1810
I0
sS'back'
p1811
I0
sS'so'
p1812
I0
sS'rabbit'
p1813
I0
sS'home'
p1814
I0
sS'the'
p1815
I0
ssS'shit?'
p1816
(dp1817
S'\n'
p1818
I1
ssS'appeal'
p1819
(dp1820
S'with'
p1821
I1
ssS'drink,'
p1822
(dp1823
S'drink'
p1824
I1
ssS'genes'
p1825
(dp1826
S'\n'
p1827
I1
ssS'water'
p1828
(dp1829
S'\n'
p1830
I0
sS'my'
p1831
I0
ssS"honesty's"
p1832
(dp1833
S'brutal'
p1834
I1
ssS'say,'
p1835
(dp1836
S"i'm"
p1837
I1
ssS'change'
p1838
(dp1839
S'what'
p1840
I1
ssS'wait'
p1841
(dp1842
S'a'
p1843
I1
ssS'boy'
p1844
(dp1845
S"you're"
p1846
I0
sS'\n'
p1847
I0
ssS'flames'
p1848
(dp1849
S'\n'
p1850
I1
ssS'my'
p1851
(dp1852
S'motherfucking'
p1853
I0
sS'nigga'
p1854
I0
sS'shot'
p1855
I0
sS'family'
p1856
I0
sS'people'
p1857
I0
sS'slang'
p1858
I0
sS'mind'
p1859
I0
sS'back'
p1860
I0
sS'down'
p1861
I0
sS'mirror'
p1862
I0
sS'wrath'
p1863
I0
sS'pager'
p1864
I0
sS"nigga's"
p1865
I0
sS'seed,'
p1866
I0
sS'grub'
p1867
I0
sS'only'
p1868
I0
sS'finger'
p1869
I0
sS'way'
p1870
I0
sS'9'
p1871
I0
sS'life'
p1872
I0
sS'flight'
p1873
I0
sS'business'
p1874
I0
sS'niggas,'
p1875
I0
sS'genes'
p1876
I0
sS'a.k.'
p1877
I0
sS'dental,'
p1878
I0
sS'nigga,'
p1879
I0
sS'guns,'
p1880
I0
sS"honesty's"
p1881
I0
sS'ramen'
p1882
I0
sS'styrofoam'
p1883
I0
sS'bank'
p1884
I0
sS'pharoahe'
p1885
I0
sS'niggas'
p1886
I0
sS'face'
p1887
I0
sS'dick'
p1888
I0
sS'way,'
p1889
I0
sS'mixtape'
p1890
I0
sS'mouth'
p1891
I0
sS"pen'll"
p1892
I0
sS'head'
p1893
I0
sS'first'
p1894
I0
ssS'blowin'
p1895
(dp1896
S'up'
p1897
I1
ssS'lakers'
p1898
(dp1899
S'beat'
p1900
I1
ssS'eazy,'
p1901
(dp1902
S'thank'
p1903
I1
ssS'here,'
p1904
(dp1905
S'i'
p1906
I1
ssS'motherfucking'
p1907
(dp1908
S'niggas,'
p1909
I0
sS'option,'
p1910
I0
sS'roof'
p1911
I0
ssS'love'
p1912
(dp1913
S'and'
p1914
I0
sS'all'
p1915
I0
sS'you,'
p1916
I0
sS'like'
p1917
I0
ssS'case,'
p1918
(dp1919
S'shit,'
p1920
I1
ssS'myself,'
p1921
(dp1922
S'but'
p1923
I1
ssS'hesitate,'
p1924
(dp1925
S'to'
p1926
I1
ssS'everybody'
p1927
(dp1928
S"breakin'"
p1929
I0
sS'loves'
p1930
I0
sS'want'
p1931
I0
ssS'prove'
p1932
(dp1933
S'it'
p1934
I0
sS'that'
p1935
I0
ssS'tripping'
p1936
(dp1937
S'on'
p1938
I0
sS'he'
p1939
I0
ssS'believe,'
p1940
(dp1941
S'today'
p1942
I1
ssS'nigga,'
p1943
(dp1944
S'shawty'
p1945
I0
sS'my'
p1946
I0
ssS"makin'"
p1947
(dp1948
S'me'
p1949
I0
sS'it'
p1950
I0
ssS'angels'
p1951
(dp1952
S'fight'
p1953
I1
ssS'today'
p1954
(dp1955
S'i'
p1956
I0
sS'was'
p1957
I0
sS'seems'
p1958
I0
ssS"motherfuckin'"
p1959
(dp1960
S'table'
p1961
I0
sS'audience'
p1962
I0
sS'rock'
p1963
I0
ssS'club'
p1964
(dp1965
S'\n'
p1966
I0
sS'oh'
p1967
I0
ssS'fly'
p1968
(dp1969
S'dreams'
p1970
I1
ssS'niggas'
p1971
(dp1972
S'drink,'
p1973
I0
sS'on'
p1974
I0
sS'\n'
p1975
I0
sS'down'
p1976
I0
sS'cool,'
p1977
I0
sS'smoke,'
p1978
I0
sS"'cause"
p1979
I0
sS'in'
p1980
I0
sS'put'
p1981
I0
sS'believe'
p1982
I0
sS'wanna'
p1983
I0
ssS'pretend'
p1984
(dp1985
S'that'
p1986
I1
ssS'means,'
p1987
(dp1988
S'what'
p1989
I0
sS"we're"
p1990
I0
ssS'niggaz'
p1991
(dp1992
S'and'
p1993
I0
sS'everyway'
p1994
I0
ssS'wrong,'
p1995
(dp1996
S'i'
p1997
I1
ssS'n.w.a,'
p1998
(dp1999
S'cube,'
p2000
I1
ssS'crazy'
p2001
(dp2002
S'bitch'
p2003
I1
ssS'figure'
p2004
(dp2005
S'\n'
p2006
I1
ssS"didn't"
p2007
(dp2008
S'even'
p2009
I0
sS'hesitate,'
p2010
I0
sS'pig'
p2011
I0
ssS'fuck'
p2012
(dp2013
S'a'
p2014
I0
sS'them'
p2015
I0
sS'\n'
p2016
I0
sS'that'
p2017
I0
sS'being'
p2018
I0
sS'since'
p2019
I0
sS'am'
p2020
I0
sS'it,'
p2021
I0
sS'your'
p2022
I0
sS'how'
p2023
I0
sS'are'
p2024
I0
sS'all'
p2025
I0
sS'about'
p2026
I0
sS'you'
p2027
I0
sS'with'
p2028
I0
sS"i'm"
p2029
I0
ssS'nascar'
p2030
(dp2031
S'\n'
p2032
I1
ssS'heard'
p2033
(dp2034
S'you'
p2035
I1
ssS'dropped'
p2036
(dp2037
S'her'
p2038
I1
ssS'gaping'
p2039
(dp2040
S'\n'
p2041
I1
ssS'product'
p2042
(dp2043
S'of'
p2044
I0
sS'\n'
p2045
I0
ssS'may'
p2046
(dp2047
S'be'
p2048
I1
ssS'sacrifice'
p2049
(dp2050
S'virgins'
p2051
I1
ssS'mac'
p2052
(dp2053
S'in'
p2054
I1
ssS'mad'
p2055
(dp2056
S'\n'
p2057
I0
sS'but'
p2058
I0
ssS'bread,'
p2059
(dp2060
S'aw'
p2061
I1
ssS'dove'
p2062
(dp2063
S'and'
p2064
I1
ssS'grow'
p2065
(dp2066
S'up,'
p2067
I0
sS'old'
p2068
I0
ssS'man'
p2069
(dp2070
S'i'
p2071
I0
sS'while'
p2072
I0
sS'\n'
p2073
I0
ssS'supersonic'
p2074
(dp2075
S'speed,'
p2076
I1
ssS'maybe'
p2077
(dp2078
S"i'll"
p2079
I0
sS'to'
p2080
I0
sS'yo'
p2081
I0
ssS'taking,'
p2082
(dp2083
S'make'
p2084
I1
ssS'switch'
p2085
(dp2086
S'my'
p2087
I1
ssS'so'
p2088
(dp2089
S'airplane,'
p2090
I0
sS"don't"
p2091
I0
sS'gay'
p2092
I0
sS'that'
p2093
I0
sS'i'
p2094
I0
sS'sweet'
p2095
I0
sS'hard'
p2096
I0
sS'when'
p2097
I0
sS'here'
p2098
I0
sS'can'
p2099
I0
sS'deep'
p2100
I0
sS'satan'
p2101
I0
sS'stagnant'
p2102
I0
sS'mad'
p2103
I0
sS'call'
p2104
I0
sS'the'
p2105
I0
sS'loud'
p2106
I0
sS'you'
p2107
I0
sS'ray'
p2108
I0
ssS'block'
p2109
(dp2110
S'with'
p2111
I1
ssS'pulled'
p2112
(dp2113
S'out'
p2114
I1
ssS'refund'
p2115
(dp2116
S'i'
p2117
I1
ssS'brain'
p2118
(dp2119
S'\n'
p2120
I1
ssS'accolades'
p2121
(dp2122
S'the'
p2123
I1
ssS'mom,'
p2124
(dp2125
S'i'
p2126
I1
ssS'cold'
p2127
(dp2128
S'water'
p2129
I0
sS'product'
p2130
I0
ssS'still'
p2131
(dp2132
S'be'
p2133
I0
sS'blowin'
p2134
I0
sS'chunky,'
p2135
I0
sS'hungry'
p2136
I0
sS'here'
p2137
I0
sS'as'
p2138
I0
sS'stupid'
p2139
I0
sS'rap'
p2140
I0
sS'in'
p2141
I0
sS'tongue'
p2142
I0
ssS'police'
p2143
(dp2144
S'and'
p2145
I1
ssS'thank'
p2146
(dp2147
S'a'
p2148
I0
sS'god'
p2149
I0
sS'you,'
p2150
I0
ssS"he's"
p2151
(dp2152
S'grown'
p2153
I0
sS'choking,'
p2154
I0
sS'dope'
p2155
I0
sS'no'
p2156
I0
sS'nervous,'
p2157
I0
sS'broke,'
p2158
I0
sS'so'
p2159
I0
sS'too'
p2160
I0
sS'known'
p2161
I0
sS'cold'
p2162
I0
ssS'immortality'
p2163
(dp2164
S'like'
p2165
I1
ssS'earnhardt'
p2166
(dp2167
S'of'
p2168
I1
ssS'dead,'
p2169
(dp2170
S'but'
p2171
I1
ssS'lonely'
p2172
(dp2173
S'roads'
p2174
I1
ssS'win,'
p2175
(dp2176
S'but'
p2177
I1
ssS'nod'
p2178
(dp2179
S'\n'
p2180
I1
ssS'half'
p2181
(dp2182
S'of'
p2183
I0
sS'as'
p2184
I0
sS'\n'
p2185
I0
sS'way'
p2186
I0
ssS'not'
p2187
(dp2188
S'hip'
p2189
I0
sS'be'
p2190
I0
sS'taking'
p2191
I0
sS'\n'
p2192
I0
sS'to'
p2193
I0
sS'a'
p2194
I0
sS'blow?'
p2195
I0
sS'miss'
p2196
I0
ssS'now'
p2197
(dp2198
S'oh,'
p2199
I0
sS"you're"
p2200
I0
sS'who'
p2201
I0
sS'that'
p2202
I0
sS'i'
p2203
I0
sS'wish'
p2204
I0
sS'\n'
p2205
I0
ssS'killed'
p2206
(dp2207
S'the'
p2208
I0
sS'in'
p2209
I0
ssS'maintaining'
p2210
(dp2211
S'this'
p2212
I1
ssS'down'
p2213
(dp2214
S'ass'
p2215
I0
sS'with'
p2216
I0
sS'her'
p2217
I0
sS'for'
p2218
I0
sS'if'
p2219
I0
ssS'name'
p2220
(dp2221
S'\n'
p2222
I1
ssS'opera'
p2223
(dp2224
S'is'
p2225
I1
ssS'drop'
p2226
(dp2227
S'\n'
p2228
I0
sS'f-bombs,'
p2229
I0
sS'bombs,'
p2230
I0
sS'top'
p2231
I0
sS'it'
p2232
I0
ssS'oh...'
p2233
(dp2234
S'oh'
p2235
I1
ssS'trouble,'
p2236
(dp2237
S'big'
p2238
I0
sS'\n'
p2239
I0
ssS'rock'
p2240
(dp2241
S'with'
p2242
I0
sS"n'"
p2243
I0
ssS'dirty,'
p2244
(dp2245
S'tryna'
p2246
I1
ssS'got,'
p2247
(dp2248
S'like'
p2249
I1
ssS'yeah'
p2250
(dp2251
S'i'
p2252
I0
sS'we'
p2253
I0
sS'\n'
p2254
I0
ssS'i-i-i-i'
p2255
(dp2256
S'could'
p2257
I1
ssS'girl'
p2258
(dp2259
S'i'
p2260
I0
sS'\n'
p2261
I0
sS'been'
p2262
I0
ssS'tried'
p2263
(dp2264
S'to'
p2265
I1
ssS'living'
p2266
(dp2267
S'and'
p2268
I1
ssS'profit'
p2269
(dp2270
S'\n'
p2271
I1
ssS'looking'
p2272
(dp2273
S'at'
p2274
I0
sS'boy'
p2275
I0
sS'boy,'
p2276
I0
sS'for'
p2277
I0
sS'boy?'
p2278
I0
ssS'stupid'
p2279
(dp2280
S'ass'
p2281
I0
sS'ass,'
p2282
I0
ssS'million'
p2283
(dp2284
S'leagues'
p2285
I0
sS'trillion'
p2286
I0
sS'things'
p2287
I0
ssS'where'
p2288
(dp2289
S'i'
p2290
I0
sS'you'
p2291
I0
sS'once'
p2292
I0
ssS'coulda'
p2293
(dp2294
S'put'
p2295
I1
ssS'honest'
p2296
(dp2297
S'\n'
p2298
I1
ssS'motion'
p2299
(dp2300
S'\n'
p2301
I1
ssS'funky'
p2302
(dp2303
S'\n'
p2304
I1
ssS"planet's"
p2305
(dp2306
S'krypton,'
p2307
I1
ssS'think'
p2308
(dp2309
S'i'
p2310
I0
sS"it's"
p2311
I0
sS'\n'
p2312
I0
sS'it'
p2313
I0
sS'not,'
p2314
I0
ssS'first'
p2315
(dp2316
S'things'
p2317
I0
sS'lick'
p2318
I0
sS'bitch'
p2319
I0
sS'name'
p2320
I0
ssS'choking,'
p2321
(dp2322
S'how?'
p2323
I1
ssS'indecent'
p2324
(dp2325
S'as'
p2326
I1
ssS'yourself'
p2327
(dp2328
S'and'
p2329
I0
sS'in'
p2330
I0
ssS'drove'
p2331
(dp2332
S'to'
p2333
I0
sS'her'
p2334
I0
ssS'ripping'
p2335
(dp2336
S'any'
p2337
I1
ssS'little'
p2338
(dp2339
S'mama'
p2340
I0
sS'dumb'
p2341
I0
sS'stupid'
p2342
I0
sS'patient'
p2343
I0
sS'gay'
p2344
I0
ssS'wrath'
p2345
(dp2346
S'of'
p2347
I1
ssS'caught'
p2348
(dp2349
S'up'
p2350
I1
ssS'trillion'
p2351
(dp2352
S'things'
p2353
I1
ssS'maxipad'
p2354
(dp2355
S'\n'
p2356
I1
ssS'white'
p2357
(dp2358
S'trash'
p2359
I1
ssS'crack,'
p2360
(dp2361
S'then'
p2362
I1
ssS'gravy,'
p2363
(dp2364
S'out'
p2365
I1
ssS'on,'
p2366
(dp2367
S'but'
p2368
I0
sS"that's"
p2369
I0
ssS'that'
p2370
(dp2371
S"i'll"
p2372
I0
sS'nigga'
p2373
I0
sS'text'
p2374
I0
sS'is'
p2375
I0
sS'\n'
p2376
I0
sS'one'
p2377
I0
sS'bitch'
p2378
I0
sS'rap'
p2379
I0
sS'its'
p2380
I0
sS'shit'
p2381
I0
sS'if'
p2382
I0
sS"boy's"
p2383
I0
sS'pussy'
p2384
I0
sS'gate'
p2385
I0
sS'you'
p2386
I0
sS'was'
p2387
I0
sS'easy,'
p2388
I0
sS'ass'
p2389
I0
sS'then'
p2390
I0
sS'we'
p2391
I0
sS'hard'
p2392
I0
sS'hard,'
p2393
I0
sS'started'
p2394
I0
sS'airplanes'
p2395
I0
sS'but'
p2396
I0
sS"karma's"
p2397
I0
sS"ain't"
p2398
I0
sS"i'ma"
p2399
I0
sS'they'
p2400
I0
sS'anything'
p2401
I0
sS'phone'
p2402
I0
sS'i'
p2403
I0
sS'means,'
p2404
I0
sS'she'
p2405
I0
sS'the'
p2406
I0
ssS'huh'
p2407
(dp2408
S'young'
p2409
I1
ssS'hillary'
p2410
(dp2411
S'rodham'
p2412
I1
ssS'than'
p2413
(dp2414
S'this'
p2415
I0
sS'to'
p2416
I0
sS'never'
p2417
I0
ssS"here's"
p2418
(dp2419
S'a'
p2420
I0
sS'what'
p2421
I0
ssS'decision,'
p2422
(dp2423
S'free'
p2424
I1
ssS'gotta'
p2425
(dp2426
S'go'
p2427
I0
sS'do'
p2428
I0
sS'murder'
p2429
I0
sS'thank'
p2430
I0
sS'keep'
p2431
I0
ssS'future'
p2432
(dp2433
S'\n'
p2434
I1
ssS'were'
p2435
(dp2436
S'just'
p2437
I1
ssS'and'
p2438
(dp2439
S"i'll"
p2440
I0
sS'all'
p2441
I0
sS'help'
p2442
I0
sS'tie,'
p2443
I0
sS'burst'
p2444
I0
sS'do'
p2445
I0
sS'when'
p2446
I0
sS'booed'
p2447
I0
sS'it'
p2448
I0
sS'indecent'
p2449
I0
sS'momma'
p2450
I0
sS'ready'
p2451
I0
sS'take'
p2452
I0
sS'doodle'
p2453
I0
sS"smashin'"
p2454
I0
sS'if'
p2455
I0
sS"you're"
p2456
I0
sS'he'
p2457
I0
sS'prove'
p2458
I0
sS"it's"
p2459
I0
sS'make'
p2460
I0
sS"don't"
p2461
I0
sS'everyday'
p2462
I0
sS'killed'
p2463
I0
sS'everything'
p2464
I0
sS'that'
p2465
I0
sS'too'
p2466
I0
sS'then'
p2467
I0
sS'crack'
p2468
I0
sS'got'
p2469
I0
sS'struggling'
p2470
I0
sS'man'
p2471
I0
sS'hope'
p2472
I0
sS'more'
p2473
I0
sS'back'
p2474
I0
sS'be'
p2475
I0
sS'buy'
p2476
I0
sS'hit'
p2477
I0
sS'spit'
p2478
I0
sS'get'
p2479
I0
sS'stop'
p2480
I0
sS'sold'
p2481
I0
sS'watch'
p2482
I0
sS'loyalty'
p2483
I0
sS'here'
p2484
I0
sS'you'
p2485
I0
sS'water'
p2486
I0
sS'shoot'
p2487
I0
sS'stepped,'
p2488
I0
sS'understand'
p2489
I0
sS'they'
p2490
I0
sS'not'
p2491
I0
sS'the'
p2492
I0
sS'induct'
p2493
I0
sS'a'
p2494
I0
sS"crashin'"
p2495
I0
sS'i'
p2496
I0
sS'wanna'
p2497
I0
sS'barely'
p2498
I0
sS'pour'
p2499
I0
sS'these'
p2500
I0
sS'she'
p2501
I0
sS'pay'
p2502
I0
sS"i'm"
p2503
I0
sS"that's"
p2504
I0
sS'my'
p2505
I0
sS'youthful'
p2506
I0
sS"it'll"
p2507
I0
ssS'gathering'
p2508
(dp2509
S'take'
p2510
I1
ssS'lick'
p2511
(dp2512
S'me'
p2513
I0
sS'the'
p2514
I0
sS'pass'
p2515
I0
ssS'slap'
p2516
(dp2517
S'box,'
p2518
I0
sS'box?'
p2519
I0
ssS'say'
p2520
(dp2521
S'i'
p2522
I0
sS'\n'
p2523
I0
sS'it'
p2524
I0
sS'looking'
p2525
I0
sS'you'
p2526
I0
sS'he'
p2527
I0
ssS'breakfast'
p2528
(dp2529
S'with'
p2530
I1
ssS'saw'
p2531
(dp2532
S'the'
p2533
I1
ssS'any'
p2534
(dp2535
S'chances'
p2536
I0
sS'notes'
p2537
I0
sS'one'
p2538
I0
ssS'zod'
p2539
(dp2540
S'this'
p2541
I1
ssS'lumps'
p2542
(dp2543
S'\n'
p2544
I1
ssS'take'
p2545
(dp2546
S'a'
p2547
I0
sS'me'
p2548
I0
sS'seven'
p2549
I0
sS'into'
p2550
I0
sS'it'
p2551
I0
sS'place'
p2552
I0
sS'the'
p2553
I0
ssS'damn,'
p2554
(dp2555
S'she'
p2556
I1
ssS'blunt'
p2557
(dp2558
S'in'
p2559
I1
ssS'channel'
p2560
(dp2561
S'\n'
p2562
I1
ssS'choked,'
p2563
(dp2564
S"he's"
p2565
I1
ssS'handing'
p2566
(dp2567
S'you'
p2568
I1
ssS'sure'
p2569
(dp2570
S'somewhere'
p2571
I1
ssS'pain'
p2572
(dp2573
S'inside'
p2574
I1
ssS'normal'
p2575
(dp2576
S'life'
p2577
I0
sS'\n'
p2578
I0
ssS'ren,'
p2579
(dp2580
S'yella,'
p2581
I1
ssS'paid'
p2582
(dp2583
S'what'
p2584
I0
sS'\n'
p2585
I0
ssS'tugging'
p2586
(dp2587
S'and'
p2588
I1
ssS'pager'
p2589
(dp2590
S'still'
p2591
I1
ssS'forever'
p2592
(dp2593
S'waiting'
p2594
I0
sS'like'
p2595
I0
ssS'later'
p2596
(dp2597
S'as'
p2598
I1
ssS'hungry'
p2599
(dp2600
S'looking'
p2601
I0
sS'\n'
p2602
I0
ssS'not,'
p2603
(dp2604
S'this'
p2605
I0
sS'why'
p2606
I0
ssS'thst'
p2607
(dp2608
S'act'
p2609
I1
ssS'walking'
p2610
(dp2611
S'dead,'
p2612
I1
ssS'shot'
p2613
(dp2614
S'\n'
p2615
I1
ssS'show'
p2616
(dp2617
S'you'
p2618
I1
ssS'shit..'
p2619
(dp2620
S'\n'
p2621
I1
ssS'three-wheel'
p2622
(dp2623
S'motion'
p2624
I1
ssS'yo..'
p2625
(dp2626
S'uhh..'
p2627
I0
sS'\n'
p2628
I0
ssS'dick'
p2629
(dp2630
S'runs'
p2631
I1
ssS'enough'
p2632
(dp2633
S'to'
p2634
I0
sS'room'
p2635
I0
sS'rhymes'
p2636
I0
ssS'only'
p2637
(dp2638
S'motherfucking'
p2639
I0
sS'realized'
p2640
I0
sS'knows'
p2641
I0
sS'get'
p2642
I0
sS'hall'
p2643
I0
sS'going'
p2644
I0
sS'opportunity'
p2645
I0
sS'grows'
p2646
I0
ssS'going'
p2647
(dp2648
S'in,'
p2649
I0
sS'to'
p2650
I0
sS'in'
p2651
I0
ssS'get'
p2652
(dp2653
S'a'
p2654
I0
sS'me'
p2655
I0
sS'outta'
p2656
I0
sS'her'
p2657
I0
sS'no'
p2658
I0
sS'this'
p2659
I0
sS'straight'
p2660
I0
sS'some'
p2661
I0
sS'it'
p2662
I0
sS'one'
p2663
I0
sS'to'
p2664
I0
sS'back'
p2665
I0
sS'too'
p2666
I0
sS'another'
p2667
I0
sS'away'
p2668
I0
sS'into'
p2669
I0
sS'jealous,'
p2670
I0
sS'by'
p2671
I0
sS"'em"
p2672
I0
sS'taken'
p2673
I0
ssS'seven-eleven,'
p2674
(dp2675
S'seven-eleven'
p2676
I1
ssS'cannot'
p2677
(dp2678
S'grow'
p2679
I1
ssS"'til"
p2680
(dp2681
S'i'
p2682
I0
sS'your'
p2683
I0
ssS"crashin'"
p2684
(dp2685
S'\n'
p2686
I1
ssS'prima'
p2687
(dp2688
S'donna'
p2689
I1
ssS'pimp'
p2690
(dp2691
S'but'
p2692
I0
sS'c,'
p2693
I0
ssS'ironic,'
p2694
(dp2695
S'i'
p2696
I1
ssS"goin'"
p2697
(dp2698
S'towards'
p2699
I0
sS'h.a.m'
p2700
I0
ssS'bombs'
p2701
(dp2702
S"i'm"
p2703
I1
ssS"maywhether's"
p2704
(dp2705
S'pad'
p2706
I1
ssS'syllables,'
p2707
(dp2708
S'killaholic'
p2709
I1
ssS"y'all"
p2710
(dp2711
S'playin'
p2712
I0
sS'\n'
p2713
I0
ssS'burst'
p2714
(dp2715
S'in'
p2716
I1
ssS'seat'
p2717
(dp2718
S'\n'
p2719
I1
ssS'asleep'
p2720
(dp2721
S'in'
p2722
I1
ssS'hoes'
p2723
(dp2724
S'is'
p2725
I0
sS'chase'
p2726
I0
sS"don't"
p2727
I0
ssS'job,'
p2728
(dp2729
S'before'
p2730
I1
ssS'hall'
p2731
(dp2732
S'of'
p2733
I1
ssS'wheel,'
p2734
(dp2735
S"i'm"
p2736
I1
ssS'24/7'
p2737
(dp2738
S'special'
p2739
I1
ssS'label'
p2740
(dp2741
S'everyday'
p2742
I1
ssS'outside'
p2743
(dp2744
S'forever'
p2745
I1
ssS'between'
p2746
(dp2747
S'being'
p2748
I1
ssS'man,'
p2749
(dp2750
S'that'
p2751
I0
sS'these'
p2752
I0
sS'oh'
p2753
I0
sS'i'
p2754
I0
sS'silly'
p2755
I0
sS'she'
p2756
I0
ssS'killing'
p2757
(dp2758
S'off'
p2759
I1
ssS'jj'
p2760
(dp2761
S'fad'
p2762
I1
ssS'come'
p2763
(dp2764
S'and'
p2765
I0
sS'trying'
p2766
I0
sS'around'
p2767
I0
sS'out'
p2768
I0
ssS'missions'
p2769
(dp2770
S'\n'
p2771
I1
ssS'yep,'
p2772
(dp2773
S'yackidy-yac'
p2774
I1
ssS'many'
p2775
(dp2776
S'verses'
p2777
I1
ssS'berry'
p2778
(dp2779
S'flashin'
p2780
I1
ssS'way,'
p2781
(dp2782
S'to'
p2783
I0
sS'my'
p2784
I0
ssS'comes'
p2785
(dp2786
S'a'
p2787
I0
sS'once'
p2788
I0
ssS'madness'
p2789
(dp2790
S'\n'
p2791
I1
ssS'color'
p2792
(dp2793
S'of'
p2794
I1
ssS'crew'
p2795
(dp2796
S'\n'
p2797
I1
ssS'flunkie,'
p2798
(dp2799
S'pill'
p2800
I1
ssS'rock,'
p2801
(dp2802
S'shock'
p2803
I1
ssS'capable'
p2804
(dp2805
S'\n'
p2806
I1
ssS'vacation'
p2807
(dp2808
S'to'
p2809
I1
ssS'games,'
p2810
(dp2811
S"i'ma"
p2812
I1
ssS'direction'
p2813
(dp2814
S'\n'
p2815
I1
ssS'wake'
p2816
(dp2817
S'up'
p2818
I1
ssS'those'
p2819
(dp2820
S'fly'
p2821
I0
sS'high'
p2822
I0
ssS'paying'
p2823
(dp2824
S'the'
p2825
I1
ssS'myself'
p2826
(dp2827
S'cause'
p2828
I1
ssS'these'
p2829
(dp2830
S'ropes,'
p2831
I0
sS'fucking'
p2832
I0
sS'dollar'
p2833
I0
sS'times'
p2834
I0
sS'verses'
p2835
I0
sS'bombs'
p2836
I0
sS'hoes'
p2837
I0
sS'lyrical'
p2838
I0
ssS'cash'
p2839
(dp2840
S'flow'
p2841
I1
ssS'rhymes'
p2842
(dp2843
S'to'
p2844
I1
ssS'jerk,'
p2845
(dp2846
S'jerk'
p2847
I1
ssS"clock's"
p2848
(dp2849
S'run'
p2850
I1
ssS'situation'
p2851
(dp2852
S'\n'
p2853
I1
ssS'it,'
p2854
(dp2855
S'you'
p2856
I0
sS"life's"
p2857
I0
ssS'pharoahe'
p2858
(dp2859
S'monch'
p2860
I1
ssS'middle'
p2861
(dp2862
S'of'
p2863
I1
ssS'ironic'
p2864
(dp2865
S'i'
p2866
I1
ssS'somebody'
p2867
(dp2868
S'take'
p2869
I1
ssS'everyday'
p2870
(dp2871
S'looking'
p2872
I0
sS'i'
p2873
I0
ssS'pat'
p2874
(dp2875
S'on'
p2876
I1
ssS'doctor'
p2877
(dp2878
S'ordered'
p2879
I1
ssS'pay'
p2880
(dp2881
S'homage,'
p2882
I1
ssS'thinkin'
p2883
(dp2884
S'will'
p2885
I0
sS'about?'
p2886
I0
ssS'same'
p2887
(dp2888
S'pace'
p2889
I0
sS'time'
p2890
I0
ssS'ya'
p2891
(dp2892
S'like'
p2893
I1
ssS'pad'
p2894
(dp2895
S'and'
p2896
I0
sS'\n'
p2897
I0
ssS'struggling'
p2898
(dp2899
S'\n'
p2900
I1
ssS'week'
p2901
(dp2902
S'fucked'
p2903
I1
ssS'askin'
p2904
(dp2905
S"y'all"
p2906
I1
ssS'lakim'
p2907
(dp2908
S'shabazz,'
p2909
I1
ssS'weed'
p2910
(dp2911
S"that's"
p2912
I1
ssS'statue'
p2913
(dp2914
S'of'
p2915
I1
ssS'$hort'
p2916
(dp2917
S"dog's"
p2918
I1
ssS'no'
p2919
(dp2920
S'mekhi'
p2921
I0
sS'that'
p2922
I0
sS'ceilings'
p2923
I0
sS'throwin'
p2924
I0
sS'clothes'
p2925
I0
sS'father'
p2926
I0
sS'movie,'
p2927
I0
sS'feelings'
p2928
I0
sS'asgard,'
p2929
I0
sS'static'
p2930
I0
sS'barkin'
p2931
I0
sS'hog'
p2932
I0
sS'more,'
p2933
I0
sS'helicopter'
p2934
I0
sS'smog'
p2935
I0
sS'flexin,'
p2936
I0
sS'more'
p2937
I0
ssS"can't"
p2938
(dp2939
S'do'
p2940
I0
sS'hit'
p2941
I0
sS'get'
p2942
I0
sS'provide'
p2943
I0
sS'believe,'
p2944
I0
sS'batter'
p2945
I0
sS'miss'
p2946
I0
ssS'genie'
p2947
(dp2948
S'or'
p2949
I1
ssS'bumping'
p2950
(dp2951
S'heavy'
p2952
I1
ssS'being'
p2953
(dp2954
S'a'
p2955
I0
sS'normal'
p2956
I0
ssS'tip'
p2957
(dp2958
S'at'
p2959
I1
ssS'rest'
p2960
(dp2961
S'in'
p2962
I1
ssS'pissing'
p2963
(dp2964
S'match'
p2965
I1
ssS'kill'
p2966
(dp2967
S'you"'
p2968
I0
sS"'em"
p2969
I0
ssS'touch'
p2970
(dp2971
S'your'
p2972
I1
ssS'blow'
p2973
(dp2974
S'\n'
p2975
I0
sS'up'
p2976
I0
ssS'seems'
p2977
(dp2978
S'like'
p2979
I0
sS'kinda'
p2980
I0
ssS'yella,'
p2981
(dp2982
S'eazy,'
p2983
I1
ssS'bones,'
p2984
(dp2985
S'and'
p2986
I1
ssS'curtains,'
p2987
(dp2988
S"i'm"
p2989
I1
ssS'real'
p2990
(dp2991
S'so'
p2992
I1
ssS'around'
p2993
(dp2994
S'and'
p2995
I0
sS'the'
p2996
I0
sS'with'
p2997
I0
sS'one'
p2998
I0
ssS'read'
p2999
(dp3000
S'the'
p3001
I1
ssS'gonna'
p3002
(dp3003
S'go'
p3004
I0
sS'be'
p3005
I0
sS'text'
p3006
I0
ssS'mom'
p3007
(dp3008
S'deep'
p3009
I1
ssS'world'
p3010
(dp3011
S'is'
p3012
I0
sS'order,'
p3013
I0
ssS'lady'
p3014
(dp3015
S'lumps'
p3016
I1
ssS"thinkin'"
p3017
(dp3018
S'that'
p3019
I1
ssS'blaoh!'
p3020
(dp3021
S'\n'
p3022
I1
ssS'audience'
p3023
(dp3024
S'a'
p3025
I1
ssS'nose'
p3026
(dp3027
S'dove'
p3028
I0
sS'cause'
p3029
I0
ssS'grub'
p3030
(dp3031
S'on,'
p3032
I1
ssS'broke,'
p3033
(dp3034
S'he'
p3035
I1
ssS'playin'
p3036
(dp3037
S'basketball?'
p3038
I1
ssS'thinks'
p3039
(dp3040
S'their'
p3041
I1
ssS'mood'
p3042
(dp3043
S'all'
p3044
I1
ssS'moon'
p3045
(dp3046
S'since'
p3047
I1
ssS'nascar,'
p3048
(dp3049
S'nascar'
p3050
I1
ssS'business'
p3051
(dp3052
S'like'
p3053
I1
ssS'throw'
p3054
(dp3055
S'on'
p3056
I1
ssS'rodham'
p3057
(dp3058
S'\n'
p3059
I1
ssS"cube's"
p3060
(dp3061
S'a'
p3062
I1
ssS'ok'
p3063
(dp3064
S'after'
p3065
I1
ssS'oh'
p3066
(dp3067
S'\n'
p3068
I0
sS'man,'
p3069
I0
sS'yeah'
p3070
I0
ssS'of'
p3071
(dp3072
S'faggots'
p3073
I0
sS'rakim,'
p3074
I0
sS'myself,'
p3075
I0
sS'mine'
p3076
I0
sS'shame'
p3077
I0
sS'fame'
p3078
I0
sS'planking,'
p3079
I0
sS"monotony's"
p3080
I0
sS'liberty'
p3081
I0
sS'rubber'
p3082
I0
sS'attack'
p3083
I0
sS'me'
p3084
I0
sS'life'
p3085
I0
sS'students'
p3086
I0
sS'it'
p3087
I0
sS'bean'
p3088
I0
sS'those'
p3089
I0
sS'a'
p3090
I0
sS'flames'
p3091
I0
sS'these'
p3092
I0
sS'niggaz'
p3093
I0
sS'time'
p3094
I0
sS'the'
p3095
I0
sS'my'
p3096
I0
ssS'stop,'
p3097
(dp3098
S'at'
p3099
I1
ssS'stand'
p3100
(dp3101
S'and'
p3102
I0
sS'outside'
p3103
I0
ssS'oy'
p3104
(dp3105
S'vey,'
p3106
I1
ssS"it's"
p3107
(dp3108
S'me'
p3109
I0
sS'a'
p3110
I0
sS'all'
p3111
I0
sS'still'
p3112
I0
sS'just'
p3113
I0
sS'getting'
p3114
I0
sS'me,'
p3115
I0
sS'\n'
p3116
I0
sS'hot'
p3117
I0
sS'actually'
p3118
I0
sS'levitating'
p3119
I0
sS'wrong'
p3120
I0
sS'honestly'
p3121
I0
sS'no'
p3122
I0
sS'lunchtime'
p3123
I0
sS'not'
p3124
I0
sS'pop,'
p3125
I0
sS'my'
p3126
I0
sS'curtains,'
p3127
I0
sS'ironic,'
p3128
I0
ssS'supersonics'
p3129
(dp3130
S'\n'
p3131
I1
ssS'out,'
p3132
(dp3133
S'times'
p3134
I1
ssS'or'
p3135
(dp3136
S'a'
p3137
I0
sS'shot'
p3138
I0
sS'just'
p3139
I0
sS'anything'
p3140
I0
sS'one'
p3141
I0
sS'go'
p3142
I0
sS'end'
p3143
I0
ssS'\n'
p3144
(dp3145
g1
I0
sS'all'
p3146
I0
sS'just'
p3147
I0
sS"don't"
p3148
I0
sS'shit..'
p3149
I0
sS'over'
p3150
I0
sS'half'
p3151
I0
sS'yo..'
p3152
I0
sS'rest'
p3153
I0
sS'feet,'
p3154
I0
sS'mom,'
p3155
I0
sS'on'
p3156
I0
sS'"hey,'
p3157
I0
sS'ok,'
p3158
I0
sS'before'
p3159
I0
sS'lyrics'
p3160
I0
sS'jay'
p3161
I0
sS'imma'
p3162
I0
sS"singin'"
p3163
I0
sS'had'
p3164
I0
sS'to'
p3165
I0
sS'only'
p3166
I0
sS'snap'
p3167
I0
sS'uh,'
p3168
I0
sS'executive'
p3169
I0
sS'then'
p3170
I0
sS'his'
p3171
I0
sS'hit'
p3172
I0
sS'get'
p3173
I0
sS'look,'
p3174
I0
sS'yg'
p3175
I0
sS'da'
p3176
I0
sS'break'
p3177
I0
sS'know'
p3178
I0
sS'they'
p3179
I0
sS'angels'
p3180
I0
sS'now'
p3181
I0
sS'like,'
p3182
I0
sS'shawty'
p3183
I0
sS'knock'
p3184
I0
sS'school'
p3185
I0
sS'like'
p3186
I0
sS'success'
p3187
I0
sS'tear'
p3188
I0
sS'cause'
p3189
I0
sS'drop'
p3190
I0
sS'this'
p3191
I0
sS'man,'
p3192
I0
sS'she'
p3193
I0
sS'wish'
p3194
I0
sS'went'
p3195
I0
sS'dale'
p3196
I0
sS'nigga'
p3197
I0
sS'innovative'
p3198
I0
sS'some'
p3199
I0
sS'back'
p3200
I0
sS'feel'
p3201
I0
sS'i-i-i-i'
p3202
I0
sS'see'
p3203
I0
sS'full'
p3204
I0
sS'are'
p3205
I0
sS'picked'
p3206
I0
sS'me?'
p3207
I0
sS'best'
p3208
I0
sS'even'
p3209
I0
sS'what'
p3210
I0
sS'said'
p3211
I0
sS'for'
p3212
I0
sS'giving'
p3213
I0
sS'god'
p3214
I0
sS'everything'
p3215
I0
sS'enough'
p3216
I0
sS"there's"
p3217
I0
sS'got'
p3218
I0
sS'appeal'
p3219
I0
sS'ever'
p3220
I0
sS'whassup?'
p3221
I0
sS'kneel'
p3222
I0
sS'told'
p3223
I0
sS'ass'
p3224
I0
sS'be'
p3225
I0
sS'we'
p3226
I0
sS'drink'
p3227
I0
sS'do'
p3228
I0
sS"fuckin'"
p3229
I0
sS'never'
p3230
I0
sS'hey,'
p3231
I0
sS'packing'
p3232
I0
sS'let'
p3233
I0
sS'put'
p3234
I0
sS'throw'
p3235
I0
sS"something's"
p3236
I0
sS'last'
p3237
I0
sS'i-i-i'
p3238
I0
sS'ill'
p3239
I0
sS"he's"
p3240
I0
sS'called'
p3241
I0
sS'plus'
p3242
I0
sS'oy'
p3243
I0
sS"i'm"
p3244
I0
sS'makes'
p3245
I0
sS'or'
p3246
I0
sS'first'
p3247
I0
sS'lookin'
p3248
I0
sS'drunk'
p3249
I0
sS'shake'
p3250
I0
sS'a'
p3251
I0
sS'one'
p3252
I0
sS'because'
p3253
I0
sS'bitch'
p3254
I0
sS'drove'
p3255
I0
sS'hey'
p3256
I0
sS'everybody'
p3257
I0
sS"you're"
p3258
I0
sS'little'
p3259
I0
sS'from'
p3260
I0
sS'would'
p3261
I0
sS'prove'
p3262
I0
sS"it's"
p3263
I0
sS'caught'
p3264
I0
sS'there'
p3265
I0
sS'finally'
p3266
I0
sS'call'
p3267
I0
sS"i'mma"
p3268
I0
sS'was'
p3269
I0
sS'today'
p3270
I0
sS'tryna'
p3271
I0
sS'life'
p3272
I0
sS'that'
p3273
I0
sS"didn't"
p3274
I0
sS"what's"
p3275
I0
sS'took'
p3276
I0
sS'but'
p3277
I0
sS'it'
p3278
I0
sS"ain't"
p3279
I0
sS'basically'
p3280
I0
sS'baby'
p3281
I0
sS'ok'
p3282
I0
sS'trying'
p3283
I0
sS'with'
p3284
I0
sS'than'
p3285
I0
sS'he'
p3286
I0
sS'me'
p3287
I0
sS'ow...'
p3288
I0
sS'made'
p3289
I0
sS'left'
p3290
I0
sS'these'
p3291
I0
sS'gotten'
p3292
I0
sS'morphed'
p3293
I0
sS'say'
p3294
I0
sS'can'
p3295
I0
sS'while'
p3296
I0
sS'woke'
p3297
I0
sS'freakin'
p3298
I0
sS'my'
p3299
I0
sS'inspired'
p3300
I0
sS'and'
p3301
I0
sS'seven'
p3302
I0
sS'barely'
p3303
I0
sS'give'
p3304
I0
sS'censor'
p3305
I0
sS'fuck'
p3306
I0
sS'well,'
p3307
I0
sS'as'
p3308
I0
sS'dropped'
p3309
I0
sS"mc's"
p3310
I0
sS'in'
p3311
I0
sS'keep'
p3312
I0
sS'saw'
p3313
I0
sS'if'
p3314
I0
sS"chasin'"
p3315
I0
sS'no'
p3316
I0
sS'thinkin'
p3317
I0
sS"i've"
p3318
I0
sS'when'
p3319
I0
sS'how'
p3320
I0
sS'take'
p3321
I0
sS'which'
p3322
I0
sS'mhmm'
p3323
I0
sS'you'
p3324
I0
sS'roll'
p3325
I0
sS'oh,'
p3326
I0
sS'tried'
p3327
I0
sS'rappers'
p3328
I0
sS'who'
p3329
I0
sS'stay'
p3330
I0
sS'most'
p3331
I0
sS'two'
p3332
I0
sS"'cause"
p3333
I0
sS'fucked'
p3334
I0
sS'bottles'
p3335
I0
sS'coast'
p3336
I0
sS'why'
p3337
I0
sS'yeah'
p3338
I0
sS'off'
p3339
I0
sS'i'
p3340
I0
sS'yeah,'
p3341
I0
sS'so'
p3342
I0
sS'the'
p3343
I0
sS'bumping'
p3344
I0
sS'pulled'
p3345
I0
sS"that's"
p3346
I0
ssS"tryin'"
p3347
(dp3348
S'to'
p3349
I1
ssS'nowadays'
p3350
(dp3351
S'everybody'
p3352
I0
sS'we'
p3353
I0
ssS'your'
p3354
(dp3355
S'ass'
p3356
I0
sS'lovely'
p3357
I0
sS'plans'
p3358
I0
sS'unconscious'
p3359
I0
sS'biscuit'
p3360
I0
sS'\n'
p3361
I0
sS'mind'
p3362
I0
sS'two'
p3363
I0
sS'label'
p3364
I0
sS'chance'
p3365
I0
sS'nose'
p3366
I0
sS'mom'
p3367
I0
sS'grind'
p3368
I0
sS'feelings'
p3369
I0
sS'lap'
p3370
I0
ssS'ass,'
p3371
(dp3372
S'i'
p3373
I1
ssS'weight'
p3374
(dp3375
S'\n'
p3376
I1
ssS'her'
p3377
(dp3378
S'ass'
p3379
I0
sS'on'
p3380
I0
sS'decision,'
p3381
I0
sS'cheddar,'
p3382
I0
sS'bring'
p3383
I0
sS'feel'
p3384
I0
sS'up'
p3385
I0
sS'face'
p3386
I0
sS'hair'
p3387
I0
sS'to'
p3388
I0
sS'lick'
p3389
I0
sS'back'
p3390
I0
sS'fall'
p3391
I0
sS'wanna'
p3392
I0
ssS'there'
p3393
(dp3394
S'was'
p3395
I0
sS'comes'
p3396
I0
sS'goes'
p3397
I0
ssS'hey'
p3398
(dp3399
S'wait,'
p3400
I1
ssS'futile'
p3401
(dp3402
S'if'
p3403
I1
ssS'lot'
p3404
(dp3405
S'but'
p3406
I0
sS'for'
p3407
I0
sS'more'
p3408
I0
ssS'you,'
p3409
(dp3410
S'ill'
p3411
I0
sS'love'
p3412
I0
sS'they'
p3413
I0
sS'but'
p3414
I0
ssS'you"'
p3415
(dp3416
S'\n'
p3417
I1
ssS'helicopter'
p3418
(dp3419
S'looking'
p3420
I1
ssS'trying'
p3421
(dp3422
S'to'
p3423
I0
sS'to,'
p3424
I0
ssS'with'
p3425
(dp3426
S'a'
p3427
I0
sS'monica'
p3428
I0
sS'no'
p3429
I0
sS'this'
p3430
I0
sS'doc'
p3431
I0
sS'fucking'
p3432
I0
sS'\n'
p3433
I0
sS'it'
p3434
I0
sS'you"'
p3435
I0
sS'rock,'
p3436
I0
sS'these'
p3437
I0
sS'bad'
p3438
I0
sS'other'
p3439
I0
sS"ain't"
p3440
I0
sS'devils,'
p3441
I0
sS'the'
p3442
I0
sS'my'
p3443
I0
sS'you'
p3444
I0
sS"can't"
p3445
I0
ssS'rage'
p3446
(dp3447
S'and'
p3448
I0
sS'\n'
p3449
I0
ssS'bucket'
p3450
(dp3451
S'lapped'
p3452
I1
ssS'l.a.'
p3453
(dp3454
S'\n'
p3455
I1
ssS'am'
p3456
(dp3457
S'i'
p3458
I1
ssS'deep'
p3459
(dp3460
S'\n'
p3461
I0
sS'put'
p3462
I0
sS'throating'
p3463
I0
ssS'general'
p3464
(dp3465
S'zod'
p3466
I1
ssS'as'
p3467
(dp3468
S'a'
p3469
I0
sS'we'
p3470
I0
sS'bananas'
p3471
I0
sS'rude'
p3472
I0
sS'i'
p3473
I0
sS'big'
p3474
I0
sS'\n'
p3475
I0
sS'all'
p3476
I0
sS'honest'
p3477
I0
sS'rapunzel'
p3478
I0
sS'hell'
p3479
I0
sS'you'
p3480
I0
sS'the'
p3481
I0
sS'nice'
p3482
I0
ssS'at'
p3483
(dp3484
S'me'
p3485
I0
sS'supersonic'
p3486
I0
sS'that'
p3487
I0
sS'it'
p3488
I0
sS'least'
p3489
I0
sS'a'
p3490
I0
sS'you'
p3491
I0
sS"maywhether's"
p3492
I0
sS'the'
p3493
I0
sS'subway'
p3494
I0
sS'songs'
p3495
I0
ssS'aw'
p3496
(dp3497
S'damn,'
p3498
I0
sS'man,'
p3499
I0
ssS'politics'
p3500
(dp3501
S'\n'
p3502
I0
sS'that'
p3503
I0
ssS"buildin'"
p3504
(dp3505
S'but'
p3506
I1
ssS'again'
p3507
(dp3508
S'i'
p3509
I1
ssS'shady,'
p3510
(dp3511
S"you're"
p3512
I1
ssS'gibbedy,'
p3513
(dp3514
S'hibbedy'
p3515
I1
ssS'rubber'
p3516
(dp3517
S'\n'
p3518
I1
ssS'5'
p3519
(dp3520
S'\n'
p3521
I1
ssS'fools'
p3522
(dp3523
S'tried'
p3524
I1
ssS'trash'
p3525
(dp3526
S'god'
p3527
I1
ssS'oh,'
p3528
(dp3529
S'drop'
p3530
I0
sS'there'
p3531
I0
sS'oh...'
p3532
I0
sS'oh-oh'
p3533
I0
sS"he's"
p3534
I0
ssS'students'
p3535
(dp3536
S'\n'
p3537
I1
ssS'slang'
p3538
(dp3539
S'\n'
p3540
I1
ssS"life's"
p3541
(dp3542
S'handing'
p3543
I1
ssS'yo!'
p3544
(dp3545
S'mtv'
p3546
I1
ssS'alright'
p3547
(dp3548
S'\n'
p3549
I1
ssS'overseas'
p3550
(dp3551
S'\n'
p3552
I1
ssS'all'
p3553
(dp3554
S'a'
p3555
I0
sS'on'
p3556
I0
sS'about'
p3557
I0
sS'over,'
p3558
I0
sS'night'
p3559
I0
sS'with'
p3560
I0
sS'of'
p3561
I0
sS'changed'
p3562
I0
sS'i'
p3563
I0
sS'they'
p3564
I0
sS'in'
p3565
I0
sS'hell'
p3566
I0
sS'the'
p3567
I0
sS'my'
p3568
I0
sS'day'
p3569
I0
ssS'since'
p3570
(dp3571
S'i'
p3572
I0
sS'the'
p3573
I0
sS'bill'
p3574
I0
sS'\n'
p3575
I0
ssS'lapped'
p3576
(dp3577
S'up'
p3578
I1
ssS'forget'
p3579
(dp3580
S'to'
p3581
I1
ssS'dollar'
p3582
(dp3583
S'signs'
p3584
I1
ssS'imma'
p3585
(dp3586
S'answer'
p3587
I1
ssS'to'
p3588
(dp3589
S'feed'
p3590
I0
sS'formulate'
p3591
I0
sS'give'
p3592
I0
sS'feel'
p3593
I0
sS'\n'
p3594
I0
sS'fuck'
p3595
I0
sS'slap'
p3596
I0
sS'one'
p3597
I0
sS'touch'
p3598
I0
sS'say'
p3599
I0
sS'sleep'
p3600
I0
sS'sacramento,'
p3601
I0
sS'rap'
p3602
I0
sS'go'
p3603
I0
sS'root'
p3604
I0
sS'bake'
p3605
I0
sS'trip'
p3606
I0
sS'blow'
p3607
I0
sS'use'
p3608
I0
sS'maybe'
p3609
I0
sS'end'
p3610
I0
sS'just'
p3611
I0
sS'come'
p3612
I0
sS'make'
p3613
I0
sS'bust'
p3614
I0
sS'find'
p3615
I0
sS'5'
p3616
I0
sS'eliminate'
p3617
I0
sS'win,'
p3618
I0
sS'call'
p3619
I0
sS'you'
p3620
I0
sS'be'
p3621
I0
sS'his'
p3622
I0
sS'hit'
p3623
I0
sS'stay'
p3624
I0
sS'get'
p3625
I0
sS'read'
p3626
I0
sS'yousat'
p3627
I0
sS'here,'
p3628
I0
sS'coast'
p3629
I0
sS'break'
p3630
I0
sS'fuse'
p3631
I0
sS'aftermath'
p3632
I0
sS'post'
p3633
I0
sS'hurt'
p3634
I0
sS'reality,'
p3635
I0
sS'tripping'
p3636
I0
sS'a'
p3637
I0
sS'school'
p3638
I0
sS'$hort'
p3639
I0
sS'seize'
p3640
I0
sS'these'
p3641
I0
sS'my'
p3642
I0
sS'drop'
p3643
I0
sS'cover'
p3644
I0
sS'keep'
p3645
I0
sS'try'
p3646
I0
sS'stop,'
p3647
I0
sS'blast'
p3648
I0
sS'settle'
p3649
I0
sS'act'
p3650
I0
sS'meet'
p3651
I0
sS'the'
p3652
I0
sS'wanna'
p3653
I0
sS'happen,'
p3654
I0
ssS'case'
p3655
(dp3656
S'cause'
p3657
I0
sS'with'
p3658
I0
ssS'mornin'
p3659
(dp3660
S'got'
p3661
I0
sS'gotta'
p3662
I0
ssS'very'
p3663
(dp3664
S'next'
p3665
I1
ssS'fat'
p3666
(dp3667
S'fanny'
p3668
I0
sS'knot'
p3669
I0
ssS'print'
p3670
(dp3671
S'\n'
p3672
I1
ssS'asteroid,'
p3673
(dp3674
S'did'
p3675
I1
ssS'fall'
p3676
(dp3677
S'on'
p3678
I1
ssS'fab'
p3679
(dp3680
S'said'
p3681
I1
ssS'ramen'
p3682
(dp3683
S'noodle,'
p3684
I1
ssS'fag'
p3685
(dp3686
S'at'
p3687
I1
ssS'fad'
p3688
(dp3689
S'\n'
p3690
I1
ssS'induct'
p3691
(dp3692
S'them'
p3693
I1
ssS'trippin'
p3694
(dp3695
S'off'
p3696
I1
ssS'columbine'
p3697
(dp3698
S'\n'
p3699
I1
ssS'cable'
p3700
(dp3701
S'channel'
p3702
I1
ssS'dodged'
p3703
(dp3704
S'a'
p3705
I1
ssS'weak,'
p3706
(dp3707
S'arms'
p3708
I1
ssS'sand'
p3709
(dp3710
S'\n'
p3711
I1
ssS"i'll"
p3712
(dp3713
S'go'
p3714
I0
sS'be'
p3715
I0
sS'switch'
p3716
I0
sS'still'
p3717
I0
ssS'track,'
p3718
(dp3719
S'call'
p3720
I1
ssS'past'
p3721
(dp3722
S'me'
p3723
I1
ssS'pass'
p3724
(dp3725
S'with'
p3726
I0
sS'him'
p3727
I0
ssS"drinkin'"
p3728
(dp3729
S"'til"
p3730
I1
ssS'conscience'
p3731
(dp3732
S'\n'
p3733
I1
ssS'what'
p3734
(dp3735
S'made'
p3736
I0
sS'words'
p3737
I0
sS'would'
p3738
I0
sS'i'
p3739
I0
sS'\n'
p3740
I0
sS'they'
p3741
I0
sS'in'
p3742
I0
sS'put'
p3743
I0
sS'got'
p3744
I0
sS'you'
p3745
I0
sS'the'
p3746
I0
sS'he'
p3747
I0
ssS'planking,'
p3748
(dp3749
S'tell'
p3750
I1
ssS'him,'
p3751
(dp3752
S"that's"
p3753
I1
ssS'run'
p3754
(dp3755
S'dmc'
p3756
I0
sS'out,'
p3757
I0
ssS'racing'
p3758
(dp3759
S'around'
p3760
I1
ssS'full'
p3761
(dp3762
S'of'
p3763
I1
ssS'mula'
p3764
(dp3765
S'baby'
p3766
I1
ssS'diapers'
p3767
(dp3768
S'\n'
p3769
I1
ssS'reality,'
p3770
(dp3771
S'oh,'
p3772
I1
ssS'inspired'
p3773
(dp3774
S'enough'
p3775
I1
ssS'brutal'
p3776
(dp3777
S'\n'
p3778
I1
ssS'amount'
p3779
(dp3780
S'of'
p3781
I1
ssS'family'
p3782
(dp3783
S'\n'
p3784
I1
ssS'ak-47,'
p3785
(dp3786
S'a'
p3787
I1
ssS'ask'
p3788
(dp3789
S'nobody'
p3790
I1
ssS'two'
p3791
(dp3792
S'cents'
p3793
I0
sS'dogs'
p3794
I0
sS'words'
p3795
I0
sS'in'
p3796
I0
ssS'lollipop'
p3797
(dp3798
S'i'
p3799
I0
sS'\n'
p3800
I0
sS'oh'
p3801
I0
ssS'taken'
p3802
(dp3803
S'to'
p3804
I1
ssS'more'
p3805
(dp3806
S'sympathetic'
p3807
I0
sS'games,'
p3808
I0
sS'\n'
p3809
I0
sS'than'
p3810
I0
ssS'tryna'
p3811
(dp3812
S'leave'
p3813
I0
sS'take'
p3814
I0
sS'chase'
p3815
I0
ssS'knows'
p3816
(dp3817
S"he's"
p3818
I0
sS'his'
p3819
I0
sS'\n'
p3820
I0
sS'that'
p3821
I0
ssS'text,'
p3822
(dp3823
S'then'
p3824
I1
ssS'mixtape'
p3825
(dp3826
S'\n'
p3827
I1
ssS"ain't"
p3828
(dp3829
S'on'
p3830
I0
sS"goin'"
p3831
I0
sS'that'
p3832
I0
sS"fuckin'"
p3833
I0
sS"fuckin',"
p3834
I0
sS'nobody'
p3835
I0
sS'never'
p3836
I0
sS'this'
p3837
I0
sS'i'
p3838
I0
sS'as'
p3839
I0
sS'going'
p3840
I0
sS'shit'
p3841
I0
sS"nothin'"
p3842
I0
sS'got'
p3843
I0
sS'my'
p3844
I0
sS'fuckin'
p3845
I0
ssS'basically'
p3846
(dp3847
S'boy'
p3848
I1
ssS'glam'
p3849
(dp3850
S'and'
p3851
I1
ssS'known'
p3852
(dp3853
S'as'
p3854
I1
ssS'glad'
p3855
(dp3856
S'everything'
p3857
I1
ssS'shit,'
p3858
(dp3859
S'why?'
p3860
I0
sS'get'
p3861
I0
sS'my'
p3862
I0
sS"that's"
p3863
I0
ssS'shit!'
p3864
(dp3865
S'\n'
p3866
I1
ssS'nine'
p3867
(dp3868
S'\n'
p3869
I1
ssS'fronted'
p3870
(dp3871
S'me,'
p3872
I1
ssS'online,'
p3873
(dp3874
S'limited'
p3875
I1
ssS'court'
p3876
(dp3877
S'and'
p3878
I1
ssS'rather'
p3879
(dp3880
S"fuckin'"
p3881
I1
ssS'utilize'
p3882
(dp3883
S'what'
p3884
I1
ssS'fame'
p3885
(dp3886
S'i'
p3887
I0
sS'\n'
p3888
I0
ssS'plans'
p3889
(dp3890
S'unravel'
p3891
I1
ssS'rude'
p3892
(dp3893
S'and'
p3894
I1
ssS'suppose'
p3895
(dp3896
S"it's"
p3897
I1
ssS'harley,'
p3898
(dp3899
S"i'm"
p3900
I1
ssS'coming'
p3901
(dp3902
S'through'
p3903
I0
sS'at'
p3904
I0
sS'around'
p3905
I0
ssS"trailer's"
p3906
(dp3907
S'got'
p3908
I1
ssS'a'
p3909
(dp3910
S'refund'
p3911
I0
sS'laptop'
p3912
I0
sS'bring'
p3913
I0
sS'pissing'
p3914
I0
sS'thumbs'
p3915
I0
sS'human'
p3916
I0
sS'rough'
p3917
I0
sS'fine'
p3918
I0
sS'swag'
p3919
I0
sS'father'
p3920
I0
sS'lake'
p3921
I0
sS'circle'
p3922
I0
sS'fatal'
p3923
I0
sS'plate'
p3924
I0
sS'good'
p3925
I0
sS'hit'
p3926
I0
sS'god?'
p3927
I0
sS'couple'
p3928
I0
sS'massacre'
p3929
I0
sS'rhyme'
p3930
I0
sS'fat'
p3931
I0
sS'game'
p3932
I0
sS'half'
p3933
I0
sS'rental'
p3934
I0
sS'fag'
p3935
I0
sS'minute'
p3936
I0
sS'prima'
p3937
I0
sS'pimp'
p3938
I0
sS'drop'
p3939
I0
sS'bad'
p3940
I0
sS'nigga'
p3941
I0
sS'house,'
p3942
I0
sS'computer'
p3943
I0
sS'flock'
p3944
I0
sS'job,'
p3945
I0
sS'conscience'
p3946
I0
sS'living'
p3947
I0
sS'24/7'
p3948
I0
sS'broad'
p3949
I0
sS"nigga's"
p3950
I0
sS'revolver'
p3951
I0
sS'new'
p3952
I0
sS'bird'
p3953
I0
sS'red'
p3954
I0
sS'million'
p3955
I0
sS'killing'
p3956
I0
sS'zombie'
p3957
I0
sS'lifetime,'
p3958
I0
sS'lollipop'
p3959
I0
sS'"hell'
p3960
I0
sS'fuck,'
p3961
I0
sS'place'
p3962
I0
sS'berry'
p3963
I0
sS'love'
p3964
I0
sS'bitch'
p3965
I0
sS'church'
p3966
I0
sS'bitch,'
p3967
I0
sS'plot'
p3968
I0
sS'little'
p3969
I0
sS'trilogy'
p3970
I0
sS'vacation'
p3971
I0
sS'beep'
p3972
I0
sS'few'
p3973
I0
sS'call'
p3974
I0
sS'way'
p3975
I0
sS'suit'
p3976
I0
sS'maxipad'
p3977
I0
sS"motherfuckin'"
p3978
I0
sS'murder'
p3979
I0
sS'lot'
p3980
I0
sS'vehicle'
p3981
I0
sS'king?'
p3982
I0
sS'king'
p3983
I0
sS'wish'
p3984
I0
sS'straight'
p3985
I0
sS'while'
p3986
I0
sS'nine'
p3987
I0
sS'cake'
p3988
I0
sS'feeling'
p3989
I0
sS'pimp"'
p3990
I0
sS'crazy'
p3991
I0
sS'triple'
p3992
I0
sS'pic'
p3993
I0
sS'fuck'
p3994
I0
sS'talking'
p3995
I0
sS'robot,'
p3996
I0
sS'doberman,'
p3997
I0
sS'rap'
p3998
I0
sS'snitch,'
p3999
I0
sS'breakfast'
p4000
I0
sS'girl'
p4001
I0
sS'tip'
p4002
I0
sS'wish,'
p4003
I0
sS'line,'
p4004
I0
sS'crib,'
p4005
I0
sS'refund,'
p4006
I0
sS'blunt'
p4007
I0
sS'product'
p4008
I0
sS'ball'
p4009
I0
sS'snail'
p4010
I0
sS'normal'
p4011
I0
sS'mac'
p4012
I0
sS'genie'
p4013
I0
sS'nuisance'
p4014
I0
sS'man'
p4015
I0
sS'a'
p4016
I0
sS'retard'
p4017
I0
sS'bullet'
p4018
I0
sS'hella'
p4019
I0
sS'jacker'
p4020
I0
sS'time'
p4021
I0
sS'position'
p4022
I0
sS'dream'
p4023
I0
ssS"breakin'"
p4024
(dp4025
S'up'
p4026
I1
ssS'music,'
p4027
(dp4028
S'you'
p4029
I1
ssS'mortem'
p4030
(dp4031
S'\n'
p4032
I1
ssS'dream'
p4033
(dp4034
S'or'
p4035
I1
ssS'playing'
p4036
(dp4037
S'in'
p4038
I1
ssS"that's"
p4039
(dp4040
S'a'
p4041
I0
sS'all'
p4042
I0
sS'just'
p4043
I0
sS'her'
p4044
I0
sS"fuckin'"
p4045
I0
sS'when'
p4046
I0
sS'what'
p4047
I0
sS'my'
p4048
I0
ssS"hurtin'"
p4049
(dp4050
S'you'
p4051
I1
ssS'help'
p4052
(dp4053
S'get'
p4054
I1
ssS"don't"
p4055
(dp4056
S'be'
p4057
I0
sS'buy'
p4058
I0
sS'forget'
p4059
I0
sS'give'
p4060
I0
sS'i'
p4061
I0
sS'make'
p4062
I0
sS'stop'
p4063
I0
sS'utilize'
p4064
I0
sS'matter,'
p4065
I0
sS'fuck'
p4066
I0
sS'matter'
p4067
I0
sS'know'
p4068
I0
sS'want'
p4069
I0
sS'pass'
p4070
I0
sS'close'
p4071
I0
sS'mistake'
p4072
I0
sS'really'
p4073
I0
ssS'uh,'
p4074
(dp4075
S'sama'
p4076
I1
ssS'soon'
p4077
(dp4078
S'after'
p4079
I1
ssS'rhymes,'
p4080
(dp4081
S'but'
p4082
I1
ssS'through'
p4083
(dp4084
S'this'
p4085
I0
sS'to'
p4086
I0
sS'the'
p4087
I0
sS'tough'
p4088
I0
ssS'signs'
p4089
(dp4090
S'and'
p4091
I1
ssS'hell'
p4092
(dp4093
S'of'
p4094
I0
sS'but'
p4095
I0
sS'syllables,'
p4096
I0
ssS'its'
p4097
(dp4098
S"makin'"
p4099
I1
ssS'already,'
p4100
(dp4101
S"mom's"
p4102
I1
ssS'actually'
p4103
(dp4104
S'disastrously'
p4105
I1
ssS'late'
p4106
(dp4107
S'\n'
p4108
I0
sS'night,'
p4109
I0
ssS'might'
p4110
(dp4111
S'be'
p4112
I0
sS'end'
p4113
I0
ssS'guns,'
p4114
(dp4115
S"that's"
p4116
I1
ssS'good'
p4117
(dp4118
S'girl'
p4119
I0
sS'at'
p4120
I0
sS'day'
p4121
I0
ssS'motivated'
p4122
(dp4123
S'\n'
p4124
I1
ssS'yo'
p4125
(dp4126
S'maybe'
p4127
I0
sS'\n'
p4128
I0
ssS'food'
p4129
(dp4130
S'stamps'
p4131
I1
ssS'yg'
p4132
(dp4133
S'my'
p4134
I1
ssS'it?'
p4135
(dp4136
S'\n'
p4137
I1
ssS'stepped,'
p4138
(dp4139
S'writing'
p4140
I1
ssS'vomit'
p4141
(dp4142
S'on'
p4143
I1
ssS'thinking?'
p4144
(dp4145
S'\n'
p4146
I1
ssS'always'
p4147
(dp4148
S'coming'
p4149
I1
ssS'raygun'
p4150
(dp4151
S'from'
p4152
I1
ssS'phifer,'
p4153
(dp4154
S'this'
p4155
I1
ssS'did'
p4156
(dp4157
S'nothing'
p4158
I1
ssS'12th'
p4159
(dp4160
S'grade'
p4161
I1
ssS'found'
p4162
(dp4163
S'a'
p4164
I1
ssS'trailer'
p4165
(dp4166
S'park,'
p4167
I1
ssS'heavy'
p4168
(dp4169
S'\n'
p4170
I0
sS'd'
p4171
I0
ssS'formulate'
p4172
(dp4173
S'a'
p4174
I1
ssS'house'
p4175
(dp4176
S'paid'
p4177
I1
ssS'throwin'
p4178
(dp4179
S'up'
p4180
I1
ssS'hard'
p4181
(dp4182
S'and'
p4183
I0
sS'\n'
p4184
I0
sS'or'
p4185
I0
ssS'house,'
p4186
(dp4187
S'my'
p4188
I0
sS'they'
p4189
I0
ssS'really'
p4190
(dp4191
S'use'
p4192
I0
sS'wanna'
p4193
I0
ssS'try'
p4194
(dp4195
S'and'
p4196
I1
ssS'mhm...'
p4197
(dp4198
S'i'
p4199
I1
ssS'alcohol'
p4200
(dp4201
S'of'
p4202
I1
ssS"nigga's"
p4203
(dp4204
S'house'
p4205
I0
sS'direction'
p4206
I0
ssS'mattered'
p4207
(dp4208
S'what'
p4209
I1
ssS'asgard'
p4210
(dp4211
S'\n'
p4212
I1
ssS'occurs'
p4213
(dp4214
S'to'
p4215
I1
ssS'ass'
p4216
(dp4217
S'nigga'
p4218
I0
sS'off'
p4219
I0
sS'like'
p4220
I0
sS'i'
p4221
I0
sS'drop'
p4222
I0
sS'back'
p4223
I0
sS'next'
p4224
I0
sS'jump'
p4225
I0
sS'to'
p4226
I0
sS'bitch'
p4227
I0
sS'never'
p4228
I0
sS'bitch,'
p4229
I0
ssS'bully'
p4230
(dp4231
S'myself'
p4232
I1
ssS'story'
p4233
(dp4234
S'unfolds'
p4235
I1
ssS'reason'
p4236
(dp4237
S"i'm"
p4238
I1
ssS'put'
p4239
(dp4240
S'me'
p4241
I0
sS'on'
p4242
I0
sS'murder'
p4243
I0
sS'her'
p4244
I0
sS'my'
p4245
I0
sS"'em"
p4246
I0
ssS'beginning'
p4247
(dp4248
S'to'
p4249
I1
ssS'mitten,'
p4250
(dp4251
S'my'
p4252
I1
ssS"meditatin'"
p4253
(dp4254
S'like'
p4255
I1
ssS'feed'
p4256
(dp4257
S'and'
p4258
I1
ssS'dont'
p4259
(dp4260
S'think'
p4261
I1
ssS'feel'
p4262
(dp4263
S'me'
p4264
I0
sS'right'
p4265
I0
sS'like'
p4266
I0
sS'\n'
p4267
I0
sS'it'
p4268
I0
sS'tugging'
p4269
I0
sS'my'
p4270
I0
ssS'minutes,'
p4271
(dp4272
S'slim'
p4273
I1
ssS'miss'
p4274
(dp4275
S'\n'
p4276
I0
sS'your'
p4277
I0
ssS'well,'
p4278
(dp4279
S'to'
p4280
I0
sS"that's"
p4281
I0
ssS'guess'
p4282
(dp4283
S'drama'
p4284
I0
sS'you'
p4285
I0
ssS'least'
p4286
(dp4287
S'once'
p4288
I1
ssS'station'
p4289
(dp4290
S'the'
p4291
I1
ssS'passed'
p4292
(dp4293
S'her'
p4294
I1
ssS'mama'
p4295
(dp4296
S'had'
p4297
I0
sS"drama's"
p4298
I0
ssS'witnessing'
p4299
(dp4300
S'a'
p4301
I1
ssS'first,'
p4302
(dp4303
S'i'
p4304
I1
ssS'mhmm'
p4305
(dp4306
S'\n'
p4307
I1
ssS"i'ma"
p4308
(dp4309
S'die'
p4310
I0
sS'ride'
p4311
I0
sS'change'
p4312
I0
ssS'believe'
p4313
(dp4314
S'dat'
p4315
I0
sS"somebody's"
p4316
I0
ssS'king'
p4317
(dp4318
S'of'
p4319
I0
sS'\n'
p4320
I0
sS'when'
p4321
I0
ssS'inducted'
p4322
(dp4323
S'in'
p4324
I1
ssS'uh!'
p4325
(dp4326
S'\n'
p4327
I1
ssS'double'
p4328
(dp4329
S'\n'
p4330
I1
ssS'supposed'
p4331
(dp4332
S'to'
p4333
I1
ssS'toward'
p4334
(dp4335
S'a'
p4336
I1
ssS'tongues'
p4337
(dp4338
S'\n'
p4339
I1
ssS'outta'
p4340
(dp4341
S'my'
p4342
I1
ssS'wasnt'
p4343
(dp4344
S'enough'
p4345
I1
ssS'juicy'
p4346
(dp4347
S'for'
p4348
I1
ssS'showers'
p4349
(dp4350
S'\n'
p4351
I1
ssS"nothin'"
p4352
(dp4353
S'but'
p4354
I1
ssS'sell'
p4355
(dp4356
S'it'
p4357
I1
ssS'odd'
p4358
(dp4359
S'\n'
p4360
I1
ssS'wish,'
p4361
(dp4362
S'a'
p4363
I1
ssS'lit'
p4364
(dp4365
S'on'
p4366
I1
ssS'order,'
p4367
(dp4368
S'a'
p4369
I1
ssS'towards'
p4370
(dp4371
S'the'
p4372
I1
ssS'most'
p4373
(dp4374
S'likely'
p4375
I1
ssS"'cause"
p4376
(dp4377
S'i'
p4378
I0
sS'fab'
p4379
I0
sS"i'm"
p4380
I0
sS'after'
p4381
I0
ssS'fab,'
p4382
(dp4383
S"i'mma"
p4384
I1
ssS'nothing'
p4385
(dp4386
S'but'
p4387
I0
sS'in'
p4388
I0
ssS'seize'
p4389
(dp4390
S'everything'
p4391
I1
ssS'mobile'
p4392
(dp4393
S'home,'
p4394
I1
ssS'sometimes'
p4395
(dp4396
S'when'
p4397
I1
ssS'cover'
p4398
(dp4399
S'up'
p4400
I1
ssS'yeah,'
p4401
(dp4402
S'i'
p4403
I0
sS'yeah,'
p4404
I0
sS'somebody'
p4405
I0
sS'back'
p4406
I0
sS"that's"
p4407
I0
ssS'yeah"'
p4408
(dp4409
S'from'
p4410
I1
ssS'lying'
p4411
(dp4412
S'\n'
p4413
I1
ssS'fine'
p4414
(dp4415
S'print'
p4416
I0
sS'bitch'
p4417
I0
ssS'find'
p4418
(dp4419
S'me'
p4420
I1
ssS'circle'
p4421
(dp4422
S'of'
p4423
I1
ssS"mom's"
p4424
(dp4425
S'spaghetti'
p4426
I1
ssS'hip'
p4427
(dp4428
S'hop'
p4429
I0
sS'hop,'
p4430
I0
ssS'his'
p4431
(dp4432
S"soul's"
p4433
I0
sS'own'
p4434
I0
sS'palms'
p4435
I0
sS'shit,'
p4436
I0
sS'mobile'
p4437
I0
sS'nut-sack'
p4438
I0
sS'sweater'
p4439
I0
sS'mouth,'
p4440
I0
sS'whole'
p4441
I0
ssS'hit'
p4442
(dp4443
S'the'
p4444
I0
sS'\n'
p4445
I0
sS'my'
p4446
I0
sS'up'
p4447
I0
sS'it'
p4448
I0
ssS'beams'
p4449
(dp4450
S'\n'
p4451
I1
ssS'stating,'
p4452
(dp4453
S'more'
p4454
I1
ssS'teeter-totter'
p4455
(dp4456
S'\n'
p4457
I1
ssS"they'd"
p4458
(dp4459
S'be'
p4460
I1
ssS'batter'
p4461
(dp4462
S'the'
p4463
I1
ssS'him'
p4464
(dp4465
S'\n'
p4466
I0
sS'since'
p4467
I0
sS'no'
p4468
I0
ssS'lewinsky'
p4469
(dp4470
S'feeling'
p4471
I1
ssS'gotten'
p4472
(dp4473
S'me'
p4474
I1
ssS'wrote'
p4475
(dp4476
S'down,'
p4477
I1
ssS'set'
p4478
(dp4479
S'your'
p4480
I1
ssS'see'
p4481
(dp4482
S'me'
p4483
I0
sS'a'
p4484
I0
sS'you'
p4485
I0
sS'\n'
p4486
I0
sS'if'
p4487
I0
ssS'dumb'
p4488
(dp4489
S'ass'
p4490
I1
ssS'are'
p4491
(dp4492
S'heavy'
p4493
I0
sS"y'all"
p4494
I0
sS'forever'
p4495
I0
sS'like'
p4496
I0
sS'hungry'
p4497
I0
sS'long'
p4498
I0
sS'sweaty,'
p4499
I0
sS'so'
p4500
I0
sS'you'
p4501
I0
sS'having'
p4502
I0
ssS'duma'
p4503
(dp4504
S'lamaa'
p4505
I1
ssS'close'
p4506
(dp4507
S'to'
p4508
I0
sS'that'
p4509
I0
ssS'arm'
p4510
(dp4511
S'and'
p4512
I1
ssS'knees'
p4513
(dp4514
S'weak,'
p4515
I1
ssS'cube,'
p4516
(dp4517
S'hey,'
p4518
I1
ssS'kneel'
p4519
(dp4520
S'before'
p4521
I1
ssS'watchin'
p4522
(dp4523
S'yo!'
p4524
I1
ssS'do'
p4525
(dp4526
S'what'
p4527
I0
sS'anything'
p4528
I0
sS'though'
p4529
I0
sS'this'
p4530
I0
sS'is'
p4531
I0
sS'\n'
p4532
I0
sS'when'
p4533
I0
sS'it'
p4534
I0
sS'to'
p4535
I0
sS'that'
p4536
I0
sS'not'
p4537
I0
sS'shit'
p4538
I0
ssS'sold'
p4539
(dp4540
S'nada,'
p4541
I1
ssS'lifetime,'
p4542
(dp4543
S'yo'
p4544
I1
ssS'dum,'
p4545
(dp4546
S'da'
p4547
I1
ssS'lyrical'
p4548
(dp4549
S'acrobat'
p4550
I1
ssS'head,'
p4551
(dp4552
S'a'
p4553
I0
sS'giving'
p4554
I0
ssS'last'
p4555
(dp4556
S'week'
p4557
I1
ssS'barely'
p4558
(dp4559
S'harley,'
p4560
I0
sS'say'
p4561
I0
sS'knows'
p4562
I0
ssS'thor'
p4563
(dp4564
S'and'
p4565
I1
ssS'whole'
p4566
(dp4567
S"back's"
p4568
I0
sS'rhapsody'
p4569
I0
sS'crowd'
p4570
I0
ssS'faggots'
p4571
(dp4572
S'and'
p4573
I1
ssS'drunk'
p4574
(dp4575
S'as'
p4576
I0
sS'so'
p4577
I0
ssS'sweet'
p4578
(dp4579
S'make'
p4580
I0
sS'\n'
p4581
I0
ssS'live,'
p4582
(dp4583
S'another'
p4584
I1
ssS'coastin'
p4585
(dp4586
S'\n'
p4587
I1
ssS'unsigned'
p4588
(dp4589
S'\n'
p4590
I1
ssS'seven-eleven'
p4591
(dp4592
S'\n'
p4593
I1
ssS'simply'
p4594
(dp4595
S'rage'
p4596
I1
ssS'church'
p4597
(dp4598
S'and'
p4599
I0
sS'gathering'
p4600
I0
ssS'bitch,'
p4601
(dp4602
S'no,'
p4603
I0
sS'i'
p4604
I0
ssS'slip,'
p4605
(dp4606
S'yo'
p4607
I1
ssS'domeless'
p4608
(dp4609
S'\n'
p4610
I1
ssS'raise'
p4611
(dp4612
S'my'
p4613
I1
ssS'trilogy'
p4614
(dp4615
S'\n'
p4616
I1
ssS'fabolous'
p4617
(dp4618
S'made'
p4619
I1
ssS"forgettin'"
p4620
(dp4621
S'\n'
p4622
I1
ssS'secret'
p4623
(dp4624
S'to'
p4625
I1
ssS'damn'
p4626
(dp4627
S'\n'
p4628
I1
ssS'woke'
p4629
(dp4630
S'her'
p4631
I1
ssS'flight'
p4632
(dp4633
S'\n'
p4634
I1
ssS'gay'
p4635
(dp4636
S'looking'
p4637
I0
sS'i'
p4638
I0
ssS"what's"
p4639
(dp4640
S'the'
p4641
I0
sS'up'
p4642
I0
ssS"smashin'"
p4643
(dp4644
S'and'
p4645
I1
ssS'understand'
p4646
(dp4647
S'the'
p4648
I1
ssS'like:'
p4649
(dp4650
S'"i'
p4651
I1
ssS'look'
p4652
(dp4653
S'at'
p4654
I0
sS'in'
p4655
I0
ssS'talking'
p4656
(dp4657
S'head,'
p4658
I0
sS'like'
p4659
I0
sS'shit'
p4660
I0
ssS'caged'
p4661
(dp4662
S'\n'
p4663
I1
ssS'straight'
p4664
(dp4665
S'to'
p4666
I0
sS'\n'
p4667
I0
sS'with'
p4668
I0
sS'face'
p4669
I0
ssS'bill'
p4670
(dp4671
S'clinton'
p4672
I1
ssS'pill'
p4673
(dp4674
S'junky'
p4675
I1
ssS'pace'
p4676
(dp4677
S'looking'
p4678
I1
ssS'while'
p4679
(dp4680
S"i'm"
p4681
I0
sS'\n'
p4682
I0
sS'they'
p4683
I0
ssS'pack'
p4684
(dp4685
S'backpack'
p4686
I1
ssS'listen'
p4687
(dp4688
S'to'
p4689
I0
sS'\n'
p4690
I0
ssS'lunchtime'
p4691
(dp4692
S'\n'
p4693
I1
ssS'cents'
p4694
(dp4695
S'if'
p4696
I1
ssS'triple'
p4697
(dp4698
S'double'
p4699
I1
ssS'ready'
p4700
(dp4701
S'\n'
p4702
I1
ssS'm.j.'
p4703
(dp4704
S'\n'
p4705
I1
ssS'chase'
p4706
(dp4707
S'them'
p4708
I0
sS'bread,'
p4709
I0
ssS'normal,'
p4710
(dp4711
S'fuck'
p4712
I1
ssS'how?'
p4713
(dp4714
S"everybody's"
p4715
I1
ssS'9'
p4716
(dp4717
S'to'
p4718
I1
ssS'used'
p4719
(dp4720
S'to'
p4721
I1
ssS"hopin'"
p4722
(dp4723
S'we'
p4724
I0
sS'but'
p4725
I0
ssS'snail'
p4726
(dp4727
S'\n'
p4728
I1
ssS'"ice'
p4729
(dp4730
S"cube's"
p4731
I1
ssS'read,'
p4732
(dp4733
S'"ice'
p4734
I1
ssS'flows'
p4735
(dp4736
S'\n'
p4737
I1
ssS'lean,'
p4738
(dp4739
S'let'
p4740
I1
ssS'moment'
p4741
(dp4742
S'\n'
p4743
I1
ssS'dum'
p4744
(dp4745
S'da'
p4746
I1
ssS"twenty-fo'"
p4747
(dp4748
S'\n'
p4749
I1
ssS'grind'
p4750
(dp4751
S'\n'
p4752
I1
ssS"fuckin',"
p4753
(dp4754
S'i'
p4755
I1
ssS'matter,'
p4756
(dp4757
S'go'
p4758
I1
ssS'barkin'
p4759
(dp4760
S'from'
p4761
I1
ssS'homies'
p4762
(dp4763
S'and'
p4764
I1
ssS'snap'
p4765
(dp4766
S'back'
p4767
I1
ssS'niggas,'
p4768
(dp4769
S'i'
p4770
I0
sS'\n'
p4771
I0
sS'my'
p4772
I0
sS'fuck'
p4773
I0
ssS'big'
p4774
(dp4775
S'and'
p4776
I0
sS'as'
p4777
I0
sS'trouble,'
p4778
I0
sS'fat'
p4779
I0
ssS'couple'
p4780
(dp4781
S'of'
p4782
I1
ssS'game'
p4783
(dp4784
S'\n'
p4785
I0
sS"'til"
p4786
I0
ssS'knock'
p4787
(dp4788
S'a'
p4789
I0
sS'the'
p4790
I0
ssS'd'
p4791
(dp4792
S'and'
p4793
I0
sS'\n'
p4794
I0
ssS'donna'
p4795
(dp4796
S'\n'
p4797
I1
ssS"rappin'"
p4798
(dp4799
S'to'
p4800
I0
sS'for'
p4801
I0
ssS'fucking'
p4802
(dp4803
S'food'
p4804
I0
sS'cornrows'
p4805
I0
sS'wheel,'
p4806
I0
ssS'some'
p4807
(dp4808
S'wishes'
p4809
I0
sS'people'
p4810
I0
sS'of'
p4811
I0
sS'niggas'
p4812
I0
sS'lean,'
p4813
I0
sS'drank'
p4814
I0
sS'new'
p4815
I0
ssS'back'
p4816
(dp4817
S'up,'
p4818
I0
sS'like'
p4819
I0
sS'nod'
p4820
I0
sS'of'
p4821
I0
sS'\n'
p4822
I0
sS'when'
p4823
I0
sS"do'"
p4824
I0
sS'it'
p4825
I0
sS'pocket'
p4826
I0
sS'to'
p4827
I0
sS'at'
p4828
I0
sS'nod,'
p4829
I0
sS'before'
p4830
I0
ssS'eatin,'
p4831
(dp4832
S'my'
p4833
I1
ssS'sight'
p4834
(dp4835
S'\n'
p4836
I1
ssS'mirror'
p4837
(dp4838
S'and'
p4839
I1
ssS'eliminate'
p4840
(dp4841
S'some'
p4842
I1
ssS'sympathetic'
p4843
(dp4844
S'to'
p4845
I1
ssS'patient'
p4846
(dp4847
S'and'
p4848
I1
ssS"fuckin'"
p4849
(dp4850
S'do'
p4851
I0
sS'with'
p4852
I0
sS'up'
p4853
I0
sS'off'
p4854
I0
ssS'zombie'
p4855
(dp4856
S'floating'
p4857
I1
ssS'by'
p4858
(dp4859
S'the'
p4860
I0
sS'with'
p4861
I0
ssS'anything'
p4862
(dp4863
S'you'
p4864
I0
sS'that'
p4865
I0
ssS'drama'
p4866
(dp4867
S'makes'
p4868
I1
ssS'hatred'
p4869
(dp4870
S'that'
p4871
I1
ssS'wanna'
p4872
(dp4873
S'dig'
p4874
I0
sS'get'
p4875
I0
sS'make'
p4876
I0
sS'\n'
p4877
I0
sS'leave'
p4878
I0
sS'lick'
p4879
I0
sS'act'
p4880
I0
sS'thug'
p4881
I0
sS'hump'
p4882
I0
ssS'half-cock'
p4883
(dp4884
S'it'
p4885
I1
ssS'youthful'
p4886
(dp4887
S'exuberance'
p4888
I1
ssS'clinton'
p4889
(dp4890
S'was'
p4891
I1
ssS'haps'
p4892
(dp4893
S'on'
p4894
I1
ssS'into'
p4895
(dp4896
S'a'
p4897
I0
sS'consideration'
p4898
I0
sS'the'
p4899
I0
sS'me,'
p4900
I0
sS'an'
p4901
I0
ssS'boy,'
p4902
(dp4903
S'what'
p4904
I1
ssS'momma'
p4905
(dp4906
S'cooked'
p4907
I1
ssS'nigga'
p4908
(dp4909
S'and'
p4910
I0
sS'we'
p4911
I0
sS'off'
p4912
I0
sS'case,'
p4913
I0
sS'get'
p4914
I0
sS'\n'
p4915
I0
sS'back'
p4916
I0
sS'getting'
p4917
I0
sS'talking'
p4918
I0
sS'that'
p4919
I0
sS'hella'
p4920
I0
sS'fronted'
p4921
I0
sS'got'
p4922
I0
sS'riding'
p4923
I0
sS'tripping'
p4924
I0
sS'bitch'
p4925
I0
ssS'boy?'
p4926
(dp4927
S'\n'
p4928
I1
ssS'joking'
p4929
(dp4930
S'now'
p4931
I1
ssS'long'
p4932
(dp4933
S'enough'
p4934
I0
sS'way,'
p4935
I0
ssS'u.'
p4936
(dp4937
S'i'
p4938
I1
ssS"we're"
p4939
(dp4940
S'in'
p4941
I1
ssS"i'mma"
p4942
(dp4943
S'work'
p4944
I0
sS'kill'
p4945
I0
ssS'suit'
p4946
(dp4947
S'and'
p4948
I1
ssS'opens'
p4949
(dp4950
S'his'
p4951
I1
ssS'line'
p4952
(dp4953
S'i'
p4954
I1
ssS'up'
p4955
(dp4956
S'and'
p4957
I0
sS'a'
p4958
I0
sS'domeless'
p4959
I0
sS'around'
p4960
I0
sS'for'
p4961
I0
sS'that'
p4962
I0
sS'wall'
p4963
I0
sS'my'
p4964
I0
sS'\n'
p4965
I0
sS'to'
p4966
I0
sS'in'
p4967
I0
sS'bobby'
p4968
I0
sS'the'
p4969
I0
sS"celebratin'"
p4970
I0
sS'with'
p4971
I0
sS'between'
p4972
I0
sS'like'
p4973
I0
ssS'uh'
p4974
(dp4975
S'huh'
p4976
I1
ssS'doc'
p4977
(dp4978
S'\n'
p4979
I1
ssS'called'
p4980
(dp4981
S'up'
p4982
I1
ssS'wakin'
p4983
(dp4984
S'up'
p4985
I1
ssS'side,'
p4986
(dp4987
S'even'
p4988
I1
ssS'ordered'
p4989
(dp4990
S'\n'
p4991
I1
ssS'robot,'
p4992
(dp4993
S'so'
p4994
I1
ssS'diverse'
p4995
(dp4996
S'as'
p4997
I1
ssS'beginning,'
p4998
(dp4999
S'the'
p5000
I1
ssS'crib,'
p5001
(dp5002
S'three'
p5003
I1
ssS'fading,'
p5004
(dp5005
S'and'
p5006
I1
ssS'nice'
p5007
(dp5008
S'at'
p5009
I1
ssS'dale'
p5010
(dp5011
S'earnhardt'
p5012
I1
ssS'potion'
p5013
(dp5014
S'hit'
p5015
I1
ssS"karma's"
p5016
(dp5017
S'too'
p5018
I1
ssS'night,'
p5019
(dp5020
S'arsenio'
p5021
I1
ssS'cooked'
p5022
(dp5023
S'a'
p5024
I1
ssS'hella'
p5025
(dp5026
S'rich'
p5027
I0
sS'way'
p5028
I0
ssS'2004'
p5029
(dp5030
S'though'
p5031
I1
ssS'back"'
p5032
(dp5033
S'from'
p5034
I1
ssS'having'
p5035
(dp5036
S'a'
p5037
I1
ssS'once'
p5038
(dp5039
S'i'
p5040
I0
sS'in'
p5041
I0
ssS'scratch'
p5042
(dp5043
S'i'
p5044
I1
ssS'freakin'
p5045
(dp5046
S'niggaz'
p5047
I1
ssS'go'
p5048
(dp5049
S'capture'
p5050
I0
sS'hard'
p5051
I0
sS'off'
p5052
I0
sS'figure'
p5053
I0
sS"it's"
p5054
I0
sS'\n'
p5055
I0
sS'back'
p5056
I0
sS'easy'
p5057
I0
sS'from'
p5058
I0
sS'cause'
p5059
I0
sS'home,'
p5060
I0
ssS'amplified'
p5061
(dp5062
S'by'
p5063
I1
ssS'ac,'
p5064
(dp5065
S'pack'
p5066
I1
ssS'young'
p5067
(dp5068
S'mula'
p5069
I1
ssS'fatal'
p5070
(dp5071
S'mistake'
p5072
I1
ssS'mainstream'
p5073
(dp5074
S'\n'
p5075
I1
ssS'rhyme'
p5076
(dp5077
S'\n'
p5078
I0
sS'for'
p5079
I0
ssS'wishes'
p5080
(dp5081
S"outta'"
p5082
I1
ssS'more,'
p5083
(dp5084
S"he's"
p5085
I1
ssS'notes'
p5086
(dp5087
S'\n'
p5088
I1
ssS'shock'
p5089
(dp5090
S'rap'
p5091
I1
ssS'deals'
p5092
(dp5093
S'online,'
p5094
I1
ssS'radio'
p5095
(dp5096
S'station'
p5097
I1
ssS'jump'
p5098
(dp5099
S'like'
p5100
I1
ssS'fold'
p5101
(dp5102
S'\n'
p5103
I1
ssS'picked'
p5104
(dp5105
S'up'
p5106
I1
ssS'spaghetti'
p5107
(dp5108
S'\n'
p5109
I1
ssS'giving'
p5110
(dp5111
S'getting'
p5112
I1
ssS'piper'
p5113
(dp5114
S'\n'
p5115
I1
ssS'waiting'
p5116
(dp5117
S'\n'
p5118
I1
ssS'bird'
p5119
(dp5120
S'brain'
p5121
I1
ssS'can'
p5122
(dp5123
S'do'
p5124
I0
sS'we'
p5125
I0
sS'be'
p5126
I0
sS'feel'
p5127
I0
sS'sacrifice'
p5128
I0
sS'barely'
p5129
I0
sS'fuck'
p5130
I0
sS'break'
p5131
I0
sS'i'
p5132
I0
sS'say'
p5133
I0
sS'get'
p5134
I0
sS'come'
p5135
I0
sS'make'
p5136
I0
ssS"wakin'"
p5137
(dp5138
S'up'
p5139
I1
ssS'packing'
p5140
(dp5141
S'a'
p5142
I1
ssS'let'
p5143
(dp5144
S'me'
p5145
I0
sS'off'
p5146
I0
sS'it'
p5147
I0
sS'her'
p5148
I0
ssS'consideration'
p5149
(dp5150
S'the'
p5151
I1
ssS"givin'"
p5152
(dp5153
S'me'
p5154
I1
ssS'casino'
p5155
(dp5156
S'in'
p5157
I1
ssS'makes'
p5158
(dp5159
S'her'
p5160
I0
sS'for'
p5161
I0
ssS'nervous,'
p5162
(dp5163
S'but'
p5164
I1
ssS'rapbot'
p5165
(dp5166
S'\n'
p5167
I1
ssS'use'
p5168
(dp5169
S'a'
p5170
I0
sS'\n'
p5171
I0
sS'my'
p5172
I0
sS'it'
p5173
I0
ssS'from'
p5174
(dp5175
S'me'
p5176
I0
sS'a'
p5177
I0
sS'columbine'
p5178
I0
sS'that'
p5179
I0
sS'2004'
p5180
I0
sS'kim,'
p5181
I0
sS'the'
p5182
I0
sS'dre'
p5183
I0
sS'your'
p5184
I0
sS'home,'
p5185
I0
ssS'doodle'
p5186
(dp5187
S'\n'
p5188
I1
ssS'next'
p5189
(dp5190
S'\n'
p5191
I0
sS'cypher'
p5192
I0
sS'schmoe'
p5193
I0
sS'day'
p5194
I0
ssS'few'
p5195
(dp5196
S'punchlines'
p5197
I1
ssS'vehicle'
p5198
(dp5199
S'to'
p5200
I1
ssS'stage'
p5201
(dp5202
S'\n'
p5203
I1
ssS'box,'
p5204
(dp5205
S'slap'
p5206
I1
ssS'hard,'
p5207
(dp5208
S'that'
p5209
I1
ssS'on'
p5210
(dp5211
S'a'
p5212
I0
sS'and'
p5213
I0
sS'his'
p5214
I0
sS'your'
p5215
I0
sS'her'
p5216
I0
sS'to'
p5217
I0
sS'top'
p5218
I0
sS'\n'
p5219
I0
sS'me'
p5220
I0
sS'you'
p5221
I0
sS'lose'
p5222
I0
sS"forgettin'"
p5223
I0
sS'"i\'m'
p5224
I0
sS'the'
p5225
I0
sS'property'
p5226
I0
sS'my'
p5227
I0
sS'him'
p5228
I0
ssS'started'
p5229
(dp5230
S'this'
p5231
I1
ssS'box?'
p5232
(dp5233
S'\n'
p5234
I1
ssS'rabbit'
p5235
(dp5236
S'he'
p5237
I1
ssS'baby'
p5238
(dp5239
S'mama'
p5240
I0
sS'\n'
p5241
I0
ssS'central'
p5242
(dp5243
S'l.a.'
p5244
I1
ssS"singin'"
p5245
(dp5246
S'to'
p5247
I1
ssS'women'
p5248
(dp5249
S'how'
p5250
I0
sS'hate'
p5251
I0
ssS'cheek,'
p5252
(dp5253
S'fuck'
p5254
I1
ssS'practicing'
p5255
(dp5256
S'\n'
p5257
I1
ssS'ropes,'
p5258
(dp5259
S'it'
p5260
I1
ssS'this'
p5261
(dp5262
S'motherfucking'
p5263
I0
sS'rappidy'
p5264
I0
sS'was'
p5265
I0
sS'may'
p5266
I0
sS'whole'
p5267
I0
sS'is'
p5268
I0
sS'\n'
p5269
I0
sS'shit?'
p5270
I0
sS'one'
p5271
I0
sS'shit'
p5272
I0
sS'moment'
p5273
I0
sS'masterpiece'
p5274
I0
sS'music'
p5275
I0
sS'slickety,'
p5276
I0
sS'rap'
p5277
I0
sS'world'
p5278
I0
sS'hole'
p5279
I0
sS'opportunity'
p5280
I0
sS'chicken'
p5281
I0
sS"trailer's"
p5282
I0
sS"planet's"
p5283
I0
ssS'ride'
p5284
(dp5285
S'for'
p5286
I1
ssS'pour'
p5287
(dp5288
S'some'
p5289
I1
ssS'meet'
p5290
(dp5291
S'run'
p5292
I1
ssS'high,'
p5293
(dp5294
S'i'
p5295
I1
ssS'tie,'
p5296
(dp5297
S'nigga'
p5298
I1
ssS'monica'
p5299
(dp5300
S'lewinsky'
p5301
I1
ssS'raps'
p5302
(dp5303
S'\n'
p5304
I1
ssS'slim'
p5305
(dp5306
S'\n'
p5307
I0
sS'shady,'
p5308
I0
ssS'high'
p5309
(dp5310
S'beams'
p5311
I1
ssS'something'
p5312
(dp5313
S'i'
p5314
I1
ssS'sip'
p5315
(dp5316
S'of'
p5317
I1
ssS"chasin'"
p5318
(dp5319
S'these'
p5320
I1
ssS"monotony's"
p5321
(dp5322
S'\n'
p5323
I1
ssS'six'
p5324
(dp5325
S'minutes,'
p5326
I1
ssS'line,'
p5327
(dp5328
S'add'
p5329
I1
ssS'rapunzel'
p5330
(dp5331
S'with'
p5332
I1
ssS'watch'
p5333
(dp5334
S'me'
p5335
I1
ssS'act'
p5336
(dp5337
S'right,'
p5338
I0
sS'right'
p5339
I0
sS'up'
p5340
I0
ssS'demonstrating'
p5341
(dp5342
S'\n'
p5343
I1
ssS'rap,'
p5344
(dp5345
S'yep,'
p5346
I1
ssS'da'
p5347
(dp5348
S'dum,'
p5349
I0
sS'\n'
p5350
I0
sS'dum'
p5351
I0
sS'da'
p5352
I0
ssS'somethin'
p5353
(dp5354
S'\n'
p5355
I1
ssS'realized'
p5356
(dp5357
S'it'
p5358
I1
ssS'light'
p5359
(dp5360
S'\n'
p5361
I1
ssS'honestly'
p5362
(dp5363
S'futile'
p5364
I1
ssS'wanted,'
p5365
(dp5366
S'one'
p5367
I1
ssS'move'
p5368
(dp5369
S'toward'
p5370
I1
ssS"won't"
p5371
(dp5372
S'\n'
p5373
I0
sS'come'
p5374
I0
sS'have'
p5375
I0
ssS'looks'
p5376
(dp5377
S'calm'
p5378
I1
ssS'doc,'
p5379
(dp5380
S'ren,'
p5381
I1
ssS'f-bombs,'
p5382
(dp5383
S'feel'
p5384
I1
ssS'bill,'
p5385
(dp5386
S'yeah'
p5387
I1
ssS'choose'
p5388
(dp5389
S'him,'
p5390
I1
ssS'lp'
p5391
(dp5392
S'\n'
p5393
I1
ssS'look,'
p5394
(dp5395
S'i'
p5396
I0
sS'if'
p5397
I0
ssS'dat'
p5398
(dp5399
S'\n'
p5400
I1
ssS"failure's"
p5401
(dp5402
S'not'
p5403
I1
ssS'front'
p5404
(dp5405
S'to'
p5406
I0
sS'seat'
p5407
I0
ssS'day'
p5408
(dp5409
S'that'
p5410
I0
sS'of'
p5411
I0
sS'shit!'
p5412
I0
sS'\n'
p5413
I0
sS"i'm"
p5414
I0
sS'with'
p5415
I0
sS'grow'
p5416
I0
ssS'stunts'
p5417
(dp5418
S'while'
p5419
I1
ssS'reloading'
p5420
(dp5421
S'immediately'
p5422
I1
ssS'8,'
p5423
(dp5424
S'yeah,'
p5425
I1
ssS'homage,'
p5426
(dp5427
S'pupil'
p5428
I1
ssS'static'
p5429
(dp5430
S'from'
p5431
I1
ssS'special'
p5432
(dp5433
S'on'
p5434
I1
ssS'out'
p5435
(dp5436
S'and'
p5437
I0
sS'\n'
p5438
I0
sS'your'
p5439
I0
sS'the'
p5440
I0
sS'my'
p5441
I0
sS"i'm"
p5442
I0
ssS'omnipotent'
p5443
(dp5444
S'\n'
p5445
I1
ssS'pointless'
p5446
(dp5447
S'as'
p5448
I1
ssS'smog'
p5449
(dp5450
S'\n'
p5451
I1
ssS'cause'
p5452
(dp5453
S'i'
p5454
I0
sS'even'
p5455
I0
sS'man,'
p5456
I0
sS'just'
p5457
I0
sS'here'
p5458
I0
ssS'red'
p5459
(dp5460
S'light'
p5461
I1
ssS'fly,'
p5462
(dp5463
S'nigga'
p5464
I1
ssS'cheddar,'
p5465
(dp5466
S'she'
p5467
I1
ssS"doin'"
p5468
(dp5469
S'cool'
p5470
I1
ssS'g'
p5471
(dp5472
S'with'
p5473
I1
ssS'"hell'
p5474
(dp5475
S'yeah"'
p5476
I1
ssS'times'
p5477
(dp5478
S'up,'
p5479
I0
sS'\n'
p5480
I0
sS'are'
p5481
I0
ssS'south'
p5482
(dp5483
S'\n'
p5484
I0
sS'central'
p5485
I0
ssS'throating'
p5486
(dp5487
S'\n'
p5488
I1
ssS'confuse'
p5489
(dp5490
S'it'
p5491
I1
ssS'bitch'
p5492
(dp5493
S'a'
p5494
I0
sS'who'
p5495
I0
sS'that'
p5496
I0
sS'i'
p5497
I0
sS'\n'
p5498
I0
sS'to'
p5499
I0
sS'stand'
p5500
I0
sS'passed'
p5501
I0
sS'with'
p5502
I0
ssS'sentimental,'
p5503
(dp5504
S'go'
p5505
I1
ssS"you're"
p5506
(dp5507
S'on'
p5508
I0
sS'like'
p5509
I0
sS'never'
p5510
I0
sS'stuck'
p5511
I0
sS'half'
p5512
I0
sS"drinkin'"
p5513
I0
sS'pointless'
p5514
I0
sS"hopin'"
p5515
I0
ssS'gay,'
p5516
(dp5517
S"that's"
p5518
I1
ssS'wrapper'
p5519
(dp5520
S'\n'
p5521
I1
ssS'their'
p5522
(dp5523
S'arms'
p5524
I1
ssS'attack'
p5525
(dp5526
S'\n'
p5527
I1
ssS'stars'
p5528
(dp5529
S'oh,'
p5530
I0
sS'\n'
p5531
I0
ssS'nobody'
p5532
(dp5533
S'i'
p5534
I0
sS'for'
p5535
I0
sS'listen'
p5536
I0
ssS'blow?'
p5537
(dp5538
S'all'
p5539
I1
ssS'boring'
p5540
(dp5541
S'\n'
p5542
I1
ssS'coast'
p5543
(dp5544
S'to'
p5545
I0
sS'shows,'
p5546
I0
ssS'bed'
p5547
(dp5548
S'\n'
p5549
I1
ssS'loves'
p5550
(dp5551
S'to'
p5552
I1
ssS'bet'
p5553
(dp5554
S'you'
p5555
I1
ssS'yellin'
p5556
(dp5557
S'domino'
p5558
I1
ssS'have'
p5559
(dp5560
S'nothing'
p5561
I0
sS'got'
p5562
I0
sS'\n'
p5563
I0
sS'any'
p5564
I0
sS'to'
p5565
I0
ssS'need'
p5566
(dp5567
S'a'
p5568
I0
sS'to'
p5569
I0
sS'all'
p5570
I0
ssS'ray?'
p5571
(dp5572
S'\n'
p5573
I1
ssS'able'
p5574
(dp5575
S'to'
p5576
I1
ssS'gravity'
p5577
(dp5578
S'\n'
p5579
I1
ssS'which'
p5580
(dp5581
S'park,'
p5582
I1
ssS'jail'
p5583
(dp5584
S'or'
p5585
I1
ssS'soap'
p5586
(dp5587
S'opera'
p5588
I1
ssS'unless'
p5589
(dp5590
S"i'm"
p5591
I1
ssS'whassup?'
p5592
(dp5593
S'hooked'
p5594
I1
ssS'who'
p5595
(dp5596
S'got'
p5597
I0
sS"can't"
p5598
I0
sS'thinks'
p5599
I0
sS'flows'
p5600
I0
ssS'nuisance'
p5601
(dp5602
S'\n'
p5603
I1
ssS'why'
p5604
(dp5605
S'be'
p5606
I0
sS'you'
p5607
I0
ssS"lil'"
p5608
(dp5609
S'joe'
p5610
I1
ssS'face'
p5611
(dp5612
S'looking'
p5613
I0
sS'and'
p5614
I0
ssS'looked'
p5615
(dp5616
S'like'
p5617
I1
ssS'park,'
p5618
(dp5619
S'the'
p5620
I0
sS'are'
p5621
I0
ssS'brew'
p5622
(dp5623
S'she'
p5624
I1
ssS'fact'
p5625
(dp5626
S'\n'
p5627
I1
ssS'no,'
p5628
(dp5629
S'that'
p5630
I1
ssS'chances'
p5631
(dp5632
S'\n'
p5633
I1
ssS'text'
p5634
(dp5635
S'me,'
p5636
I0
sS'your'
p5637
I0
ssS'bring'
p5638
(dp5639
S'that'
p5640
I1
ssS'chicken'
p5641
(dp5642
S'scratch'
p5643
I1
ssS'jay'
p5644
(dp5645
S'know'
p5646
I1
ssS'should'
p5647
(dp5648
S'not'
p5649
I1
ssS'satan'
p5650
(dp5651
S'\n'
p5652
I0
sS'take'
p5653
I0
ssS'riding'
p5654
(dp5655
S'dirty,'
p5656
I1
ssS'piano'
p5657
(dp5658
S'\n'
p5659
I1
ssS'hope'
p5660
(dp5661
S'i'
p5662
I0
sS'you'
p5663
I0
sS'it'
p5664
I0
ssS'cube'
p5665
(dp5666
S'the'
p5667
I1
ssS'chance?'
p5668
(dp5669
S'\n'
p5670
I1
ssS'watching'
p5671
(dp5672
S'a'
p5673
I1
ssS'beat'
p5674
(dp5675
S'the'
p5676
I0
sS'goes'
p5677
I0
ssS'dope'
p5678
(dp5679
S'\n'
p5680
I1
ssS'massacre'
p5681
(dp5682
S'\n'
p5683
I1
ssS'mgm'
p5684
(dp5685
S'casino'
p5686
I1
ssS'fatburger'
p5687
(dp5688
S'\n'
p5689
I1
ssS'bean'
p5690
(dp5691
S'\n'
p5692
I1
ssS'made'
p5693
(dp5694
S'a'
p5695
I0
sS'of'
p5696
I0
sS'that'
p5697
I0
sS'me'
p5698
I0
sS'ray'
p5699
I0
ssS'words'
p5700
(dp5701
S'to'
p5702
I0
sS'\n'
p5703
I0
sS"won't"
p5704
I0
sS'for'
p5705
I0
ssS'styrofoam'
p5706
(dp5707
S'up,'
p5708
I1
ssS'had,'
p5709
(dp5710
S'one'
p5711
I1
ssS"somebody's"
p5712
(dp5713
S'paying'
p5714
I1
ssS'she'
p5715
(dp5716
S'even'
p5717
I0
sS'lick'
p5718
I0
sS"givin'"
p5719
I0
sS'had'
p5720
I0
sS'into'
p5721
I0
sS'drop'
p5722
I0
sS"didn't"
p5723
I0
sS'bring'
p5724
I0
sS'hillary'
p5725
I0
sS'said'
p5726
I0
sS"ain't"
p5727
I0
sS'choose'
p5728
I0
sS'got'
p5729
I0
sS'with'
p5730
I0
sS'can'
p5731
I0
ssS'hop,'
p5732
(dp5733
S"it's"
p5734
I1
ssS'constructing'
p5735
(dp5736
S'this'
p5737
I1
ssS'shake'
p5738
(dp5739
S"'em"
p5740
I1
ssS"totin'"
p5741
(dp5742
S'\n'
p5743
I1
ssS'computer'
p5744
(dp5745
S'must'
p5746
I1
ssS"starin'"
p5747
(dp5748
S'at'
p5749
I1
ssS'unconscious'
p5750
(dp5751
S'\n'
p5752
I1
ssS"takin'"
p5753
(dp5754
S'a'
p5755
I1
ssS'junky'
p5756
(dp5757
S'\n'
p5758
I1
ssS'unravel'
p5759
(dp5760
S'in'
p5761
I1
ssS'brung'
p5762
(dp5763
S'me'
p5764
I1
ssS'bought'
p5765
(dp5766
S'a'
p5767
I1
ssS"guessin'"
p5768
(dp5769
S'that'
p5770
I1
ssS'joe'
p5771
(dp5772
S'\n'
p5773
I1
ssS'key'
p5774
(dp5775
S'and'
p5776
I1
ssS"outta'"
p5777
(dp5778
S'airplanes'
p5779
I1
ssS'taking'
p5780
(dp5781
S'any'
p5782
I1
ssS"'salem's"
p5783
(dp5784
S'lot,'
p5785
I1
ssS'shabazz,'
p5786
(dp5787
S'2pac'
p5788
I1
ssS'figures'
p5789
(dp5790
S'\n'
p5791
I1
ssS'relevant'
p5792
(dp5793
S'\n'
p5794
I1
ssS'kick,'
p5795
(dp5796
S'my'
p5797
I1
ssS'wall'
p5798
(dp5799
S'and'
p5800
I0
sS'of'
p5801
I0
ssS'walk'
p5802
(dp5803
S'a'
p5804
I0
sS'in'
p5805
I0
ssS'airplane,'
p5806
(dp5807
S'sorry'
p5808
I0
sS'airplane,'
p5809
I0
ssS'table'
p5810
(dp5811
S'\n'
p5812
I1
ssS'odin,'
p5813
(dp5814
S'you'
p5815
I1
ssS'discrimination'
p5816
(dp5817
S'\n'
p5818
I1
ssS'cowards'
p5819
(dp5820
S'\n'
p5821
I1
ssS'drank'
p5822
(dp5823
S'in'
p5824
I1
ssS'"i\'m'
p5825
(dp5826
S'back"'
p5827
I1
ssS'home,'
p5828
(dp5829
S'listen'
p5830
I0
sS"he's"
p5831
I0
sS"that's"
p5832
I0
ssS'escaping,'
p5833
(dp5834
S'through'
p5835
I1
ssS'glock'
p5836
(dp5837
S'they'
p5838
I1
ssS'c,'
p5839
(dp5840
S'underground'
p5841
I1
ssS'censor'
p5842
(dp5843
S'you'
p5844
I1
ssS'airplanes'
p5845
(dp5846
S'\n'
p5847
I1
ssS'king?'
p5848
(dp5849
S'think'
p5850
I1
ssS'an'
p5851
(dp5852
S'ak-47,'
p5853
I0
sS'ass'
p5854
I0
sS'asteroid,'
p5855
I0
sS'mc'
p5856
I0
sS'immortal'
p5857
I0
ssS'cypher'
p5858
(dp5859
S'\n'
p5860
I1
ssS'harder'
p5861
(dp5862
S'\n'
p5863
I1
ssS'pandemonium'
p5864
(dp5865
S'and'
p5866
I1
ssS'will'
p5867
(dp5868
S'i'
p5869
I1
ssS'i-i-i'
p5870
(dp5871
S'could'
p5872
I1
ssS'outside,'
p5873
(dp5874
S'all'
p5875
I1
ssS'ill'
p5876
(dp5877
S'ride'
p5878
I0
sS'when'
p5879
I0
ssS'surface'
p5880
(dp5881
S'he'
p5882
I1
ssS'blimp'
p5883
(dp5884
S'\n'
p5885
I1
ssS'thug'
p5886
(dp5887
S'\n'
p5888
I0
sS'oh'
p5889
I0
ssS'capture'
p5890
(dp5891
S'this'
p5892
I0
sS'it?'
p5893
I0
ssS'exuberance'
p5894
(dp5895
S'\n'
p5896
I1
ssS'underground'
p5897
(dp5898
S'king'
p5899
I1
ssS'flexin,'
p5900
(dp5901
S"didn't"
p5902
I1
ssS'ball'
p5903
(dp5904
S'of'
p5905
I1
ssS'drink'
p5906
(dp5907
S'the'
p5908
I0
sS'\n'
p5909
I0
ssS'fucked'
p5910
(dp5911
S'my'
p5912
I0
sS'around'
p5913
I0
ssS'retard'
p5914
(dp5915
S'\n'
p5916
I1
ssS'off'
p5917
(dp5918
S'a'
p5919
I0
sS'then'
p5920
I0
sS'and'
p5921
I0
sS'his'
p5922
I0
sS'like'
p5923
I0
sS'somethin'
p5924
I0
sS'of'
p5925
I0
sS'when'
p5926
I0
sS'it'
p5927
I0
sS'fetti'
p5928
I0
sS'stage'
p5929
I0
ssS'i'
p5930
(dp5931
S'love'
p5932
I0
sS'have'
p5933
I0
sS'just'
p5934
I0
sS"don't"
p5935
I0
sS'ran'
p5936
I0
sS'\n'
p5937
I0
sS"didn't"
p5938
I0
sS'fuck'
p5939
I0
sS'walk'
p5940
I0
sS'involve'
p5941
I0
sS'need'
p5942
I0
sS'see'
p5943
I0
sS'hear'
p5944
I0
sS'rap'
p5945
I0
sS'go'
p5946
I0
sS'still'
p5947
I0
sS'make'
p5948
I0
sS'use'
p5949
I0
sS'said'
p5950
I0
sS'let'
p5951
I0
sS'bet'
p5952
I0
sS'lead'
p5953
I0
sS'crunch'
p5954
I0
sS'had'
p5955
I0
sS'been'
p5956
I0
sS'should'
p5957
I0
sS'stuck'
p5958
I0
sS'bully'
p5959
I0
sS'swear'
p5960
I0
sS'take'
p5961
I0
sS'got'
p5962
I0
sS'speak'
p5963
I0
sS'was'
p5964
I0
sS'hope'
p5965
I0
sS'can'
p5966
I0
sS'do'
p5967
I0
sS'live,'
p5968
I0
sS'hit'
p5969
I0
sS'tried'
p5970
I0
sS'get'
p5971
I0
sS'wake'
p5972
I0
sS'coulda'
p5973
I0
sS'could'
p5974
I0
sS'felt'
p5975
I0
sS'guess'
p5976
I0
sS'gotta'
p5977
I0
sS'cannot'
p5978
I0
sS"ain't"
p5979
I0
sS'know'
p5980
I0
sS'supposed'
p5981
I0
sS'not'
p5982
I0
sS'attempt'
p5983
I0
sS'be'
p5984
I0
sS'stand'
p5985
I0
sS'scribble'
p5986
I0
sS'picked'
p5987
I0
sS'raise'
p5988
I0
sS'made'
p5989
I0
sS'kept'
p5990
I0
sS'like'
p5991
I0
sS'heard'
p5992
I0
sS'ride'
p5993
I0
sS'put'
p5994
I0
sS'say'
p5995
I0
sS'think'
p5996
I0
sS'fell'
p5997
I0
sS'suppose'
p5998
I0
sS'came'
p5999
I0
sS'lose'
p6000
I0
sS'found'
p6001
I0
sS'mean'
p6002
I0
sS'wanna'
p6003
I0
sS'half-cock'
p6004
I0
sS"can't"
p6005
I0
sS'was,'
p6006
I0
ssS'position'
p6007
(dp6008
S'\n'
p6009
I1
ssS'ok,'
p6010
(dp6011
S'little'
p6012
I1
ssS'bananas'
p6013
(dp6014
S'as'
p6015
I1
ssS'executive'
p6016
(dp6017
S'deals'
p6018
I1
ssS'hater,'
p6019
(dp6020
S"what's"
p6021
I1
ssS'glue'
p6022
(dp6023
S'to'
p6024
I1
ssS'farther'
p6025
(dp6026
S'from'
p6027
I1
ssS'point'
p6028
(dp6029
S"i'm"
p6030
I1
ssS'sky'
p6031
(dp6032
S'\n'
p6033
I0
sS'are'
p6034
I0
ssS'lake'
p6035
(dp6036
S'\n'
p6037
I1
ssS'bullshit'
p6038
(dp6039
S'every'
p6040
I1
ssS'add'
p6041
(dp6042
S'an'
p6043
I1
ssS"superstardom's"
p6044
(dp6045
S'close'
p6046
I1
ssS'combine'
p6047
(dp6048
S'\n'
p6049
I1
ssS'crack'
p6050
(dp6051
S'it'
p6052
I1
ssS'match'
p6053
(dp6054
S'with'
p6055
I1
ssS'nada,'
p6056
(dp6057
S'so'
p6058
I1
ssS'pied'
p6059
(dp6060
S'piper'
p6061
I1
ssS'hibbedy'
p6062
(dp6063
S'hip'
p6064
I1
ssS'know'
p6065
(dp6066
S'the'
p6067
I0
sS'what'
p6068
I0
sS'that'
p6069
I0
sS'i'
p6070
I0
sS'there'
p6071
I0
sS'when'
p6072
I0
sS'but'
p6073
I0
sS'how'
p6074
I0
sS'got'
p6075
I0
sS"i'm"
p6076
I0
sS'him'
p6077
I0
ssS'knot'
p6078
(dp6079
S'from'
p6080
I1
ssS'moment,'
p6081
(dp6082
S'you'
p6083
I1
ssS'immediately'
p6084
(dp6085
S'with'
p6086
I1
ssS'intersection'
p6087
(dp6088
S'\n'
p6089
I1
ssS'you'
p6090
(dp6091
S'and'
p6092
I0
sS'saying'
p6093
I0
sS'own'
p6094
I0
sS"don't"
p6095
I0
sS'feel'
p6096
I0
sS'\n'
p6097
I0
sS'back'
p6098
I0
sS'down'
p6099
I0
sS'fold'
p6100
I0
sS'see'
p6101
I0
sS'set'
p6102
I0
sS'at'
p6103
I0
sS'want'
p6104
I0
sS'need'
p6105
I0
sS'still'
p6106
I0
sS'calling,'
p6107
I0
sS'out'
p6108
I0
sS'capture'
p6109
I0
sS'little'
p6110
I0
sS'lemons,'
p6111
I0
sS'always'
p6112
I0
sS'make'
p6113
I0
sS'get'
p6114
I0
sS'had'
p6115
I0
sS'unsigned'
p6116
I0
sS"takin'"
p6117
I0
sS'looking'
p6118
I0
sS"doin'"
p6119
I0
sS'only'
p6120
I0
sS'call'
p6121
I0
sS'witnessing'
p6122
I0
sS'fade'
p6123
I0
sS'better'
p6124
I0
sS'combine'
p6125
I0
sS"starin'"
p6126
I0
sS'ever'
p6127
I0
sS'take'
p6128
I0
sS'be'
p6129
I0
sS'do'
p6130
I0
sS'watching'
p6131
I0
sS'may'
p6132
I0
sS'she'
p6133
I0
sS'assuming'
p6134
I0
sS'rhyme'
p6135
I0
sS'wish'
p6136
I0
sS"ain't"
p6137
I0
sS'know'
p6138
I0
sS'thinking?'
p6139
I0
sS'got'
p6140
I0
sS'might'
p6141
I0
sS'post'
p6142
I0
sS'say,'
p6143
I0
sS"i'm"
p6144
I0
sS'maintaining'
p6145
I0
sS'like'
p6146
I0
sS'had,'
p6147
I0
sS'niggas'
p6148
I0
sS'rodent,'
p6149
I0
sS'lose'
p6150
I0
sS'fags'
p6151
I0
sS'or'
p6152
I0
sS'can'
p6153
I0
sS'were'
p6154
I0
sS'the'
p6155
I0
sS'think'
p6156
I0
sS'say'
p6157
I0
ssS'loss'
p6158
(dp6159
S'for'
p6160
I1
ssS'like'
p6161
(dp6162
S'\n'
p6163
I0
sS'mine'
p6164
I0
sS'an'
p6165
I0
sS'm.j.'
p6166
I0
sS'shooting'
p6167
I0
sS'nowadays'
p6168
I0
sS'hey,'
p6169
I0
sS"shootin'"
p6170
I0
sS'normal,'
p6171
I0
sS"it's"
p6172
I0
sS'when'
p6173
I0
sS'two'
p6174
I0
sS'to'
p6175
I0
sS'you'
p6176
I0
sS'that'
p6177
I0
sS'it'
p6178
I0
sS'hers'
p6179
I0
sS'one'
p6180
I0
sS"i'm"
p6181
I0
sS'a'
p6182
I0
sS"something's"
p6183
I0
sS'erp'
p6184
I0
sS'i'
p6185
I0
sS'jerk,'
p6186
I0
sS'the'
p6187
I0
sS'lying'
p6188
I0
ssS'success'
p6189
(dp6190
S'is'
p6191
I1
ssS'ozone'
p6192
(dp6193
S'\n'
p6194
I1
ssS'lose'
p6195
(dp6196
S'a'
p6197
I0
sS'\n'
p6198
I0
sS'it'
p6199
I0
sS'yourself'
p6200
I0
ssS'chick'
p6201
(dp6202
S'that'
p6203
I1
ssS"back's"
p6204
(dp6205
S'to'
p6206
I1
ssS'because'
p6207
(dp6208
S'i'
p6209
I1
ssS'arsenio'
p6210
(dp6211
S'\n'
p6212
I1
ssS'immortal'
p6213
(dp6214
S'coming'
p6215
I1
ssS'hair'
p6216
(dp6217
S'down'
p6218
I1
ssS'home'
p6219
(dp6220
S'and'
p6221
I1
ssS'lead'
p6222
(dp6223
S'a'
p6224
I1
ssS'broad'
p6225
(dp6226
S'\n'
p6227
I1
ssS'seed,'
p6228
(dp6229
S'plus'
p6230
I1
ssS'grinding'
p6231
(dp6232
S'outside,'
p6233
I1
ssS'assuming'
p6234
(dp6235
S"i'm"
p6236
I1
ssS'fanny'
p6237
(dp6238
S'\n'
p6239
I1
ssS'hey,'
p6240
(dp6241
S'looking'
p6242
I0
sS'my'
p6243
I0
sS'doc,'
p6244
I0
ssS'simpler'
p6245
(dp6246
S'than'
p6247
I1
ssS'about'
p6248
(dp6249
S'to'
p6250
I0
sS'you'
p6251
I0
sS'my'
p6252
I0
ssS'getting'
p6253
(dp6254
S'even'
p6255
I0
sS'head'
p6256
I0
sS'head,'
p6257
I0
sS'twisted'
p6258
I0
ssS'biscuit'
p6259
(dp6260
S'\n'
p6261
I1
ssS'swear'
p6262
(dp6263
S'i'
p6264
I1
ssS'blackness'
p6265
(dp6266
S'\n'
p6267
I1
ssS'tongue'
p6268
(dp6269
S'in'
p6270
I1
ssS'happen,'
p6271
(dp6272
S'but'
p6273
I1
ssS'own'
p6274
(dp6275
S'it,'
p6276
I0
sS'daughter'
p6277
I0
ssS'pussy'
p6278
(dp6279
S'in'
p6280
I1
ssS'booed'
p6281
(dp6282
S'off'
p6283
I1
ssS'chronic'
p6284
(dp6285
S'\n'
p6286
I1
ssS'roads'
p6287
(dp6288
S'\n'
p6289
I1
ssS'calling,'
p6290
(dp6291
S'i'
p6292
I1
ssS'wack'
p6293
(dp6294
S'while'
p6295
I1
ssS'much'
p6296
(dp6297
S'for'
p6298
I0
sS'simpler'
p6299
I0
ssS'h.a.m'
p6300
(dp6301
S'in'
p6302
I1
ssS'buy'
p6303
(dp6304
S'everything'
p6305
I0
sS'the'
p6306
I0
sS'diapers'
p6307
I0
ssS"i've"
p6308
(dp6309
S'got'
p6310
I0
sS'\n'
p6311
I0
sS'got,'
p6312
I0
sS'been'
p6313
I0
ssS'but'
p6314
(dp6315
S'trill'
p6316
I0
sS"didn't"
p6317
I0
sS'it'
p6318
I0
sS'as'
p6319
I0
sS'want'
p6320
I0
sS'in'
p6321
I0
sS'still'
p6322
I0
sS'nowadays'
p6323
I0
sS'if'
p6324
I0
sS'for'
p6325
I0
sS"he's"
p6326
I0
sS"it's"
p6327
I0
sS'make'
p6328
I0
sS"superstardom's"
p6329
I0
sS'shawty'
p6330
I0
sS'today'
p6331
I0
sS'them'
p6332
I0
sS"i've"
p6333
I0
sS'fuck'
p6334
I0
sS'no'
p6335
I0
sS'hold'
p6336
I0
sS"i'm"
p6337
I0
sS'he'
p6338
I0
sS'shoot'
p6339
I0
sS'on'
p6340
I0
sS'look'
p6341
I0
sS'i'
p6342
I0
sS'sometimes'
p6343
I0
sS'this'
p6344
I0
sS'funky'
p6345
I0
sS'hope'
p6346
I0
sS'the'
p6347
I0
sS"that's"
p6348
I0
ssS'dental,'
p6349
(dp6350
S"goin'"
p6351
I1
ssS'he'
p6352
(dp6353
S'is'
p6354
I0
sS'talking'
p6355
I0
sS"won't"
p6356
I0
sS'looks'
p6357
I0
sS'sell'
p6358
I0
sS"doesn't"
p6359
I0
sS'blows.'
p6360
I0
sS'goes'
p6361
I0
sS'opens'
p6362
I0
sS'choked,'
p6363
I0
sS'knows'
p6364
I0
sS'trippin'
p6365
I0
sS"ain't"
p6366
I0
sS'knock'
p6367
I0
sS'knows,'
p6368
I0
sS'wrote'
p6369
I0
sS'looked'
p6370
I0
sS'so'
p6371
I0
sS'nose'
p6372
I0
sS'keeps'
p6373
I0
sS'the'
p6374
I0
sS"can't"
p6375
I0
ssS'dmc'
p6376
(dp6377
S'and'
p6378
I1
ssS'wish'
p6379
(dp6380
S'\n'
p6381
I0
sS'right'
p6382
I0
sS'for'
p6383
I0
ssS'j'
p6384
(dp6385
S'went'
p6386
I0
sS'mad'
p6387
I0
ssS'signed'
p6388
(dp6389
S'to'
p6390
I1
ssS'spot,'
p6391
(dp6392
S'another'
p6393
I1
ssS'cake'
p6394
(dp6395
S'then?'
p6396
I1
ssS'flashin'
p6397
(dp6398
S'those'
p6399
I1
ssS'domino'
p6400
(dp6401
S'\n'
p6402
I1
ssS'pic'
p6403
(dp6404
S'\n'
p6405
I1
ssS'ricocheting'
p6406
(dp6407
S'off'
p6408
I1
ssS'pig'
p6409
(dp6410
S'out'
p6411
I1
ssS'schmoe'
p6412
(dp6413
S'who'
p6414
I1
ssS'shooting'
p6415
(dp6416
S'stars?'
p6417
I0
sS'stars'
p6418
I0
ssS'other'
p6419
(dp6420
S'niggas'
p6421
I1
ssS'sick'
p6422
(dp6423
S'\n'
p6424
I1
ssS'like,'
p6425
(dp6426
S'like,'
p6427
I0
sS'like'
p6428
I0
ssS'again,'
p6429
(dp6430
S'yo'
p6431
I1
ssS'period,'
p6432
(dp6433
S"here's"
p6434
I1
ssS'stay'
p6435
(dp6436
S'relevant'
p6437
I0
sS'in'
p6438
I0
ssS'in,'
p6439
(dp6440
S'unless'
p6441
I1
ssS'chance'
p6442
(dp6443
S'to'
p6444
I0
sS'\n'
p6445
I0
ssS'kinda'
p6446
(dp6447
S'odd'
p6448
I1
ssS'rhapsody'
p6449
(dp6450
S'better'
p6451
I1
ssS"shootin'"
p6452
(dp6453
S'stars'
p6454
I1
ssS'devils,'
p6455
(dp6456
S"here's"
p6457
I1
ssS'news?'
p6458
(dp6459
S'\n'
p6460
I1
ssS"dog's"
p6461
(dp6462
S'house,'
p6463
I1
ssS'pupil'
p6464
(dp6465
S'\n'
p6466
I1
ss.